(lp0
(S'@433NL'
p1
I370
tp2
a(S'@basvansluis'
p3
I319
tp4
a(S'@Koningin_NL'
p5
I231
tp6
a(S'@Queen_UK'
p7
I170
tp8
a(S'@Becockstovers'
p9
I156
tp10
a(S'@PsychoVriendje'
p11
I110
tp12
a(S'@NTVWorldNews'
p13
I103
tp14
a(S'@claudiadebreij'
p15
I100
tp16
a(S'@TotalOVNL'
p17
I58
tp18
a(S'@LoesjeNL'
p19
I56
tp20
a(S'@globovision'
p21
I47
tp22
a(S'@GingVroggerWehA'
p23
I47
tp24
a(S'@12numaraorg'
p25
I45
tp26
a(S'@AmstelBier_NL'
p27
I45
tp28
a(S'@Sywert'
p29
I44
tp30
a(S'@Fener10line'
p31
I43
tp32
a(S'@WileyUpdates'
p33
I40
tp34
a(S'@RichardHammond'
p35
I39
tp36
a(S'@Politie_Adam'
p37
I38
tp38
a(S'@JandeHoop'
p39
I34
tp40
a(S'@QUINTINOO'
p41
I31
tp42
a(S'@DeSpeld'
p43
I30
tp44
a(S'@KarlLagerfeld'
p45
I30
tp46
a(S'@hmhrotterdam'
p47
I29
tp48
a(S'@Djarumcoklat'
p49
I28
tp50
a(S'@UltrasLeovardia'
p51
I26
tp52
a(S'@adewolff'
p53
I26
tp54
a(S'@ObeyDingen'
p55
I24
tp56
a(S'@AT5'
p57
I23
tp58
a(S'@otunca'
p59
I22
tp60
a(S'@Rosssen'
p61
I22
tp62
a(S'@lovefortheBiebz'
p63
I22
tp64
a(S'@DrGurkanKubilay'
p65
I21
tp66
a(S'@espiritu_del_69'
p67
I21
tp68
a(S'@onednews'
p69
I21
tp70
a(S'@volkskrant'
p71
I21
tp72
a(S'@FenerlininSesi'
p73
I21
tp74
a(S'@Noisia_nl'
p75
I20
tp76
a(S'@RuudFeltkamp'
p77
I20
tp78
a(S'@tentangEropa'
p79
I20
tp80
a(S'@Firebeatz'
p81
I19
tp82
a(S'@nrc'
p83
I19
tp84
a(S'@HollandsPies'
p85
I19
tp86
a(S'@petershotnews'
p87
I19
tp88
a(S'@enjoyteenage'
p89
I19
tp90
a(S'@fritswester'
p91
I18
tp92
a(S'@quotevanvandaag'
p93
I18
tp94
a(S'@EredivisieMemes'
p95
I18
tp96
a(S'@GooglePubers'
p97
I18
tp98
a(S'@wistjeditdan'
p99
I17
tp100
a(S'@LijpeMD'
p101
I17
tp102
a(S'@chrisklomp'
p103
I17
tp104
a(S'@politieNHN'
p105
I17
tp106
a(S'@DinoACM'
p107
I17
tp108
a(S'@Disi_Kanaryam'
p109
I16
tp110
a(S'@PolDenHaag'
p111
I16
tp112
a(S'@ajaxmuseumNL'
p113
I16
tp114
a(S'@BreitbartNews'
p115
I16
tp116
a(S'@Canberken10'
p117
I16
tp118
a(S'@timblnt'
p119
I15
tp120
a(S'@AmsterdamNL'
p121
I15
tp122
a(S'@forza_fenerizm'
p123
I15
tp124
a(S'@RTLNieuwsnl'
p125
I15
tp126
a(S'@NS_online'
p127
I15
tp128
a(S'@copenhagenize'
p129
I15
tp130
a(S'@NUnl'
p131
I15
tp132
a(S'@GFBEUROPE'
p133
I15
tp134
a(S'@widtvoet'
p135
I15
tp136
a(S'@profmarcoant'
p137
I14
tp138
a(S'@voetbalflitsen'
p139
I14
tp140
a(S'@Ilikefeyenoord'
p141
I14
tp142
a(S'@TheEvilWithin'
p143
I14
tp144
a(S'@innecent'
p145
I13
tp146
a(S'@ralphcalatayud'
p147
I13
tp148
a(S'@d0minicana_'
p149
I13
tp150
a(S'@gonniespijkstra'
p151
I13
tp152
a(S'@RTL_IHVH'
p153
I12
tp154
a(S'@guardian'
p155
I12
tp156
a(S'@welingelicht'
p157
I12
tp158
a(S'@oguzakdag1907'
p159
I12
tp160
a(S'@tweakjur'
p161
I12
tp162
a(S'@ahoyrotterdam'
p163
I11
tp164
a(S'@Politie_Rdam'
p165
I11
tp166
a(S'@RTVNH'
p167
I11
tp168
a(S'@GalatasarayNL__'
p169
I11
tp170
a(S'@politieglm'
p171
I11
tp172
a(S'@Showtekmusic'
p173
I11
tp174
a(S'@xdying_inside'
p175
I10
tp176
a(S'@FbTaraftari12'
p177
I10
tp178
a(S'@bartvanmerwijk_'
p179
I10
tp180
a(S'@RodeKruis'
p181
I10
tp182
a(S'@debroervanroos'
p183
I10
tp184
a(S'@bertbrussen'
p185
I10
tp186
a(S'@concerten'
p187
I10
tp188
a(S'@538'
p189
I10
tp190
a(S'@AlexanderNL'
p191
I10
tp192
a(S'@JBmyhero_'
p193
I10
tp194
a(S'@_CYENNE'
p195
I10
tp196
a(S'@the1Dscene'
p197
I10
tp198
a(S'@Iamsterdam'
p199
I10
tp200
a(S'@Rob_Vroegh'
p201
I10
tp202
a(S'@_Ece1907'
p203
I9
tp204
a(S'@martijnjonk'
p205
I9
tp206
a(S'@NRM_official'
p207
I9
tp208
a(S'@Elf19o7'
p209
I9
tp210
a(S'@melodishop_com'
p211
I9
tp212
a(S'@royalblognl'
p213
I9
tp214
a(S'@Patrickvkatwijk'
p215
I9
tp216
a(S'@OpaBeelen'
p217
I9
tp218
a(S'@GuusKuijer'
p219
I9
tp220
a(S'@pietsweer'
p221
I9
tp222
a(S'@yassinee010'
p223
I9
tp224
a(S'@KICKEN'
p225
I9
tp226
a(S'@SuperJbieberx'
p227
I9
tp228
a(S'@Universal_NL'
p229
I9
tp230
a(S'@seeezeeer'
p231
I9
tp232
a(S'@portalvaquejada'
p233
I9
tp234
a(S'@TDKARLIBEL'
p235
I9
tp236
a(S'@kihkihh'
p237
I9
tp238
a(S'@awalashaari'
p239
I9
tp240
a(S'@AnuarComedian'
p241
I9
tp242
a(S'@Cassetteboy'
p243
I9
tp244
a(S'@ShowMeFootball'
p245
I8
tp246
a(S'@egemennkorkmaz'
p247
I8
tp248
a(S'@JohnKuijt'
p249
I8
tp250
a(S'@Earth_Pics'
p251
I8
tp252
a(S'@vildanica_'
p253
I8
tp254
a(S'@AFCAjax'
p255
I8
tp256
a(S'@bontvoordieren'
p257
I8
tp258
a(S'@regio14nl'
p259
I8
tp260
a(S'@joostvanderadio'
p261
I8
tp262
a(S'@HV30aprilNL'
p263
I8
tp264
a(S'@PownedTVFeed'
p265
I8
tp266
a(S'@PolitieTwente'
p267
I8
tp268
a(S'@infobaeamerica'
p269
I8
tp270
a(S'@MbaepioMan'
p271
I8
tp272
a(S'@HIAmsterdam'
p273
I8
tp274
a(S'@xmerelvdn'
p275
I8
tp276
a(S'@veerleslegers'
p277
I8
tp278
a(S'@NoelledeWit1'
p279
I8
tp280
a(S'@sybrandbuma'
p281
I8
tp282
a(S'@remepro_nl'
p283
I8
tp284
a(S'@EarthBeauties'
p285
I8
tp286
a(S'@yanisvaroufakis'
p287
I8
tp288
a(S'@Retweetje'
p289
I8
tp290
a(S'@Schiphol'
p291
I8
tp292
a(S'@fokkesukke'
p293
I8
tp294
a(S'@ILoveIslamHD'
p295
I8
tp296
a(S'@MediaMarktLWD'
p297
I7
tp298
a(S'@kaatje36'
p299
I7
tp300
a(S'@niekfroma'
p301
I7
tp302
a(S'@iiChaimae'
p303
I7
tp304
a(S'@BertrandDelanoe'
p305
I7
tp306
a(S'@HHCClubSupport'
p307
I7
tp308
a(S'@necrofiel'
p309
I7
tp310
a(S'@Anarchiel'
p311
I7
tp312
a(S'@NeeVork'
p313
I7
tp314
a(S'@AguCasanova'
p315
I7
tp316
a(S'@youpvanthek'
p317
I7
tp318
a(S'@Ab_Dicatie'
p319
I7
tp320
a(S'@foodlog_nl'
p321
I7
tp322
a(S'@rudyculouz'
p323
I7
tp324
a(S'@FenerLee_'
p325
I7
tp326
a(S'@Bas_Taart'
p327
I7
tp328
a(S'@Cyb__'
p329
I7
tp330
a(S'@lindamagazine'
p331
I7
tp332
a(S'@JosecaSanjuanC'
p333
I7
tp334
a(S'@RaboDS'
p335
I7
tp336
a(S'@evertkwok'
p337
I7
tp338
a(S'@OngewoonDewi'
p339
I7
tp340
a(S'@NOS'
p341
I7
tp342
a(S'@rachidfinge'
p343
I7
tp344
a(S'@CleverDever'
p345
I7
tp346
a(S'@wimdaniels'
p347
I7
tp348
a(S'@MinOCW'
p349
I7
tp350
a(S'@linde17'
p351
I7
tp352
a(S'@modelprofile'
p353
I7
tp354
a(S'@WWESheamus'
p355
I7
tp356
a(S'@swagneger'
p357
I7
tp358
a(S'@BettySluyzer'
p359
I7
tp360
a(S'@biggovt'
p361
I6
tp362
a(S'@Goldiilocksx'
p363
I6
tp364
a(S'@itvpresscentre'
p365
I6
tp366
a(S'@BlauwBloedtv'
p367
I6
tp368
a(S'@Midsland'
p369
I6
tp370
a(S'@MadeByNatan_'
p371
I6
tp372
a(S'@ILOVELARYX'
p373
I6
tp374
a(S'@wabbey'
p375
I6
tp376
a(S'@telegraaf'
p377
I6
tp378
a(S'@wmiddelkoop'
p379
I6
tp380
a(S'@omroepzeeland'
p381
I6
tp382
a(S'@DePolitieheli'
p383
I6
tp384
a(S'@hendriksmj'
p385
I6
tp386
a(S'@OhMyChickens'
p387
I6
tp388
a(S'@hellochuc'
p389
I6
tp390
a(S'@rtvoost'
p391
I6
tp392
a(S'@JebenteenKoning'
p393
I6
tp394
a(S'@Kakhiel'
p395
I6
tp396
a(S'@NoahsArkLabel'
p397
I6
tp398
a(S'@slone'
p399
I6
tp400
a(S'@ArtfulDodgerDJ'
p401
I6
tp402
a(S'@Weghs'
p403
I6
tp404
a(S'@abdelkabenali'
p405
I6
tp406
a(S'@GLITTERJURK'
p407
I6
tp408
a(S'@klapster'
p409
I6
tp410
a(S'@VanHoorn'
p411
I6
tp412
a(S'@TEAMdrachten'
p413
I6
tp414
a(S'@gem_heemskerk'
p415
I6
tp416
a(S'@cMhR1907'
p417
I6
tp418
a(S'@SocietyWorld'
p419
I6
tp420
a(S'@LavieJanRoos'
p421
I6
tp422
a(S'@EESMAA_'
p423
I6
tp424
a(S'@lanacioncom'
p425
I6
tp426
a(S'@dunia_interisti'
p427
I6
tp428
a(S'@Arturograo1'
p429
I6
tp430
a(S'@NigelLord_'
p431
I6
tp432
a(S'@nvmog'
p433
I6
tp434
a(S'@GYMmotivational'
p435
I6
tp436
a(S'@HDNER'
p437
I6
tp438
a(S'@vtbtransfers'
p439
I6
tp440
a(S'@enesvural37'
p441
I6
tp442
a(S'@RaniiStarr_'
p443
I6
tp444
a(S'@JoanMelgers'
p445
I6
tp446
a(S'@jeugdjournaal'
p447
I6
tp448
a(S'@Pritt'
p449
I5
tp450
a(S'@x_MelanyB'
p451
I5
tp452
a(S'@Partyraiser_'
p453
I5
tp454
a(S'@eoincmacken'
p455
I5
tp456
a(S'@DILLONFRANCIS'
p457
I5
tp458
a(S'@Waarnaartoe'
p459
I5
tp460
a(S'@kon_marine'
p461
I5
tp462
a(S'@NicholasHoult'
p463
I5
tp464
a(S'@GroenLiesbeth'
p465
I5
tp466
a(S'@Anon_Central'
p467
I5
tp468
a(S'@MoviesOK'
p469
I5
tp470
a(S'@omroepbrabant'
p471
I5
tp472
a(S'@mattgarratt'
p473
I5
tp474
a(S'@ScennixGirll'
p475
I5
tp476
a(S'@brusselmans'
p477
I5
tp478
a(S'@McDylands'
p479
I5
tp480
a(S'@Melisssaaa_x'
p481
I5
tp482
a(S'@sertugerdogan'
p483
I5
tp484
a(S'@maxpam1'
p485
I5
tp486
a(S'@nosop3'
p487
I5
tp488
a(S'@meettheturk'
p489
I5
tp490
a(S'@DionneStax'
p491
I5
tp492
a(S'@HCGuctekin'
p493
I5
tp494
a(S'@Curva1907_'
p495
I5
tp496
a(S'@FunXCritiX'
p497
I5
tp498
a(S'@upcoming'
p499
I5
tp500
a(S'@KMJosephina'
p501
I5
tp502
a(S'@BuienRadarNL'
p503
I5
tp504
a(S'@BasWesseldijk'
p505
I5
tp506
a(S'@Chemotioneel'
p507
I5
tp508
a(S'@Kyhrakomcuk'
p509
I5
tp510
a(S'@GekkeAfghaan'
p511
I5
tp512
a(S'@ViceNL'
p513
I5
tp514
a(S'@aeroalmeriablog'
p515
I5
tp516
a(S'@corhospes'
p517
I5
tp518
a(S'@tamara_venrooy'
p519
I5
tp520
a(S'@allthingsroyal'
p521
I5
tp522
a(S'@jagerdebbie'
p523
I5
tp524
a(S'@DitisdeDag'
p525
I5
tp526
a(S'@wilg'
p527
I5
tp528
a(S'@MarcvdLinden'
p529
I5
tp530
a(S'@eelcobvr'
p531
I5
tp532
a(S'@Chelsea_Berita'
p533
I5
tp534
a(S'@AnnetKil'
p535
I5
tp536
a(S'@Ritamanssourxxx'
p537
I5
tp538
a(S'@Club_Move'
p539
I5
tp540
a(S'@politieKEN'
p541
I5
tp542
a(S'@Politie_Zeeland'
p543
I5
tp544
a(S'@Veolia_NL'
p545
I5
tp546
a(S'@Amports'
p547
I5
tp548
a(S'@AGENDA_magazine'
p549
I5
tp550
a(S'@suheydabenli'
p551
I5
tp552
a(S'@ppk'
p553
I5
tp554
a(S'@beaudonnet'
p555
I5
tp556
a(S'@ZiggoDome'
p557
I5
tp558
a(S'@gertjansegers'
p559
I5
tp560
a(S'@meess___'
p561
I5
tp562
a(S'@iLikeBobba'
p563
I5
tp564
a(S'@Crimesite'
p565
I5
tp566
a(S'@RobertKnijff'
p567
I5
tp568
a(S'@HansWestra1'
p569
I5
tp570
a(S'@helgavanleur'
p571
I5
tp572
a(S'@WinMobiel'
p573
I5
tp574
a(S'@telefenoticias'
p575
I5
tp576
a(S'@Grazia_NL'
p577
I5
tp578
a(S'@Burgernet_NH'
p579
I5
tp580
a(S'@QuintinoFanclub'
p581
I5
tp582
a(S'@luxury__travel'
p583
I5
tp584
a(S'@kanarya3567'
p585
I5
tp586
a(S'@infobae'
p587
I5
tp588
a(S'@Top__Deal'
p589
I5
tp590
a(S'@verkloot'
p591
I5
tp592
a(S'@OlympiaNL'
p593
I5
tp594
a(S'@DisneylandNL'
p595
I5
tp596
a(S'@cameramanCNN'
p597
I5
tp598
a(S'@xeylembrown'
p599
I4
tp600
a(S'@CtjeBwoy'
p601
I4
tp602
a(S'@Daisyy030'
p603
I4
tp604
a(S'@biebersotis'
p605
I4
tp606
a(S'@flugelnl'
p607
I4
tp608
a(S'@lutenist_koide'
p609
I4
tp610
a(S'@ArnoLeblanc'
p611
I4
tp612
a(S'@Mr__Herman'
p613
I4
tp614
a(S'@annefrankhouse'
p615
I4
tp616
a(S'@mirusia'
p617
I4
tp618
a(S'@x_joannejansen'
p619
I4
tp620
a(S'@youngbelegennl'
p621
I4
tp622
a(S'@albertheijnurk'
p623
I4
tp624
a(S'@arunmsk'
p625
I4
tp626
a(S'@CMOwebnl'
p627
I4
tp628
a(S'@clubseventeen'
p629
I4
tp630
a(S'@hebgeenleven'
p631
I4
tp632
a(S'@DorukhanSonmez'
p633
I4
tp634
a(S'@JonaRozay'
p635
I4
tp636
a(S'@UmNed'
p637
I4
tp638
a(S'@EtihadHabbo'
p639
I4
tp640
a(S'@BeatrixPotter'
p641
I4
tp642
a(S'@JeroenHenneman'
p643
I4
tp644
a(S'@Aslnmhmt'
p645
I4
tp646
a(S'@codepo8'
p647
I4
tp648
a(S'@kuitenbrouwer'
p649
I4
tp650
a(S'@oscarsonline'
p651
I4
tp652
a(S'@fusionrecords'
p653
I4
tp654
a(S'@AlvinDancer'
p655
I4
tp656
a(S'@landvast'
p657
I4
tp658
a(S'@CROWNRULES'
p659
I4
tp660
a(S'@pauwenwitteman'
p661
I4
tp662
a(S'@CristinaTarifa'
p663
I4
tp664
a(S'@TheNewShining'
p665
I4
tp666
a(S'@OBRivierenland'
p667
I4
tp668
a(S'@Maartentje12'
p669
I4
tp670
a(S'@GraaierDH'
p671
I4
tp672
a(S'@SALDIRFB'
p673
I4
tp674
a(S'@TrueTiger'
p675
I4
tp676
a(S'@iamlcf_'
p677
I4
tp678
a(S'@edvandepol'
p679
I4
tp680
a(S'@MartinKoolhoven'
p681
I4
tp682
a(S'@JanHoedeman'
p683
I4
tp684
a(S'@Friezerik'
p685
I4
tp686
a(S'@HeemskerkNL'
p687
I4
tp688
a(S'@haaretzcom'
p689
I4
tp690
a(S'@FunX'
p691
I4
tp692
a(S'@vechtstede'
p693
I4
tp694
a(S'@schemer'
p695
I4
tp696
a(S'@CultureboxFTV'
p697
I4
tp698
a(S'@antena3com'
p699
I4
tp700
a(S'@WiIIemAlexander'
p701
I4
tp702
a(S'@hola'
p703
I4
tp704
a(S'@MKBServicedesk'
p705
I4
tp706
a(S'@TC1907FB'
p707
I4
tp708
a(S'@CheyenneMS_'
p709
I4
tp710
a(S'@CulyNL'
p711
I4
tp712
a(S'@EllenHopkinsYA'
p713
I4
tp714
a(S'@Sam_Mikitaverse'
p715
I4
tp716
a(S'@Politie_EvVeg'
p717
I4
tp718
a(S'@mariomassaccesi'
p719
I4
tp720
a(S'@De_Ondernemer'
p721
I4
tp722
a(S'@RobSL10'
p723
I4
tp724
a(S'@AntoinRTLNieuws'
p725
I4
tp726
a(S'@computablenl'
p727
I4
tp728
a(S'@annaholligan'
p729
I4
tp730
a(S'@kennyspaans'
p731
I4
tp732
a(S'@deBijenkorf'
p733
I4
tp734
a(S'@Wielercomite'
p735
I4
tp736
a(S'@zwollerob'
p737
I4
tp738
a(S'@PayFresh'
p739
I4
tp740
a(S'@milieucentraal'
p741
I4
tp742
a(S'@DieKalevan413'
p743
I4
tp744
a(S'@DeZaak'
p745
I4
tp746
a(S'@laurasalters'
p747
I4
tp748
a(S'@manbijthond'
p749
I4
tp750
a(S'@kieranjones711'
p751
I4
tp752
a(S'@hayir_olamaz'
p753
I4
tp754
a(S'@TrouwGroen'
p755
I4
tp756
a(S'@Zomerzorg'
p757
I4
tp758
a(S'@noordnieuws'
p759
I4
tp760
a(S'@SEMRAKARAMAN'
p761
I4
tp762
a(S'@AppelsapX'
p763
I4
tp764
a(S'@Kebaaaaw'
p765
I4
tp766
a(S'@khamenei_ir'
p767
I4
tp768
a(S'@MeLevenInFotos'
p769
I4
tp770
a(S'@TheSunFootball'
p771
I4
tp772
a(S'@MJongeling'
p773
I4
tp774
a(S'@gertjandw'
p775
I4
tp776
a(S'@Willempeterss'
p777
I4
tp778
a(S'@iikheetmike'
p779
I4
tp780
a(S'@jasminocean_'
p781
I4
tp782
a(S'@WeAreChangeRdam'
p783
I4
tp784
a(S'@JMFmaassluis'
p785
I4
tp786
a(S'@irritatedwoman'
p787
I4
tp788
a(S'@CafeDeMarkies'
p789
I4
tp790
a(S'@GUYVILLAIN_'
p791
I4
tp792
a(S'@FenerUNi'
p793
I4
tp794
a(S'@denotabelen'
p795
I4
tp796
a(S'@AndreavanPol'
p797
I4
tp798
a(S'@HiCBundy'
p799
I4
tp800
a(S'@jochemvang'
p801
I4
tp802
a(S'@JustBlaze'
p803
I4
tp804
a(S'@vhroeg'
p805
I4
tp806
a(S'@kikupipo'
p807
I3
tp808
a(S'@pzcredactie'
p809
I3
tp810
a(S'@_TeamTimo'
p811
I3
tp812
a(S'@mrlgotlucky'
p813
I3
tp814
a(S'@elpoderdelpop'
p815
I3
tp816
a(S'@BrianCrossIbiza'
p817
I3
tp818
a(S'@PolLeidVburg'
p819
I3
tp820
a(S'@LudiekSneek'
p821
I3
tp822
a(S'@xPROUDMAINIACsx'
p823
I3
tp824
a(S'@DoitlikeHJR'
p825
I3
tp826
a(S'@1DOfficialMerch'
p827
I3
tp828
a(S'@MeCrazyy'
p829
I3
tp830
a(S'@NellyVibert'
p831
I3
tp832
a(S'@Lord_Wanhoop'
p833
I3
tp834
a(S'@gic_nl'
p835
I3
tp836
a(S'@C5N'
p837
I3
tp838
a(S'@burakrosa'
p839
I3
tp840
a(S'@NessAmsterdam'
p841
I3
tp842
a(S'@Raul1312Madriz'
p843
I3
tp844
a(S'@SameerrO1O_'
p845
I3
tp846
a(S'@xPHSL'
p847
I3
tp848
a(S'@Gemeente_Pekela'
p849
I3
tp850
a(S'@OnnoSpanjaart'
p851
I3
tp852
a(S'@jo_lan_da_'
p853
I3
tp854
a(S'@_YankeeDoodle_'
p855
I3
tp856
a(S'@wijkagVoorhof'
p857
I3
tp858
a(S'@veentjuh'
p859
I3
tp860
a(S'@judobond'
p861
I3
tp862
a(S'@xnOuhailaa'
p863
I3
tp864
a(S'@DYCN__'
p865
I3
tp866
a(S'@HRSB_Official'
p867
I3
tp868
a(S'@JohnQuid'
p869
I3
tp870
a(S'@MerelMilou'
p871
I3
tp872
a(S'@JamaiLoman'
p873
I3
tp874
a(S'@BarBrul'
p875
I3
tp876
a(S'@JanssenFritsen'
p877
I3
tp878
a(S'@Raarstefeiten'
p879
I3
tp880
a(S'@GemeenteNOP'
p881
I3
tp882
a(S'@holland_de'
p883
I3
tp884
a(S'@Biz_TheNation'
p885
I3
tp886
a(S'@boeken_en_zo'
p887
I3
tp888
a(S'@DJ_Tony_Star'
p889
I3
tp890
a(S'@fratzz'
p891
I3
tp892
a(S'@AliDeep101010'
p893
I3
tp894
a(S'@karloschrijver'
p895
I3
tp896
a(S'@diedehoekstra'
p897
I3
tp898
a(S'@yalipslikesugar'
p899
I3
tp900
a(S'@riaroerink'
p901
I3
tp902
a(S'@DeWaardWilnis'
p903
I3
tp904
a(S'@Thomas_0481_'
p905
I3
tp906
a(S'@genivaxaviera'
p907
I3
tp908
a(S'@MissMontreal'
p909
I3
tp910
a(S'@GilbertIsabella'
p911
I3
tp912
a(S'@YoungCabo_'
p913
I3
tp914
a(S'@hrittelmeyer'
p915
I3
tp916
a(S'@surajveerman'
p917
I3
tp918
a(S'@Pippaaass'
p919
I3
tp920
a(S'@MeliFucks'
p921
I3
tp922
a(S'@DwingeloOranje'
p923
I3
tp924
a(S'@brielleviveeen'
p925
I3
tp926
a(S'@giel3fm'
p927
I3
tp928
a(S'@VVVMontferland'
p929
I3
tp930
a(S'@ilozinho'
p931
I3
tp932
a(S'@WishfulSinging'
p933
I3
tp934
a(S'@YassirDH'
p935
I3
tp936
a(S'@JanNoniem'
p937
I3
tp938
a(S'@SZ'
p939
I3
tp940
a(S'@Achterstevoren_'
p941
I3
tp942
a(S'@Direction4life2'
p943
I3
tp944
a(S'@scHeerenveen'
p945
I3
tp946
a(S'@Connexxion'
p947
I3
tp948
a(S'@ArchbishopYoung'
p949
I3
tp950
a(S'@CabrasFeliz'
p951
I3
tp952
a(S'@JohnRSamson'
p953
I3
tp954
a(S'@bourgondischb'
p955
I3
tp956
a(S'@1DStereosoldier'
p957
I3
tp958
a(S'@KirstinShow6'
p959
I3
tp960
a(S'@Seherbaby_'
p961
I3
tp962
a(S'@Hadzahaziq'
p963
I3
tp964
a(S'@GroenLinks020'
p965
I3
tp966
a(S'@YdeSv'
p967
I3
tp968
a(S'@Merlijn12H'
p969
I3
tp970
a(S'@DanscafeDePrins'
p971
I3
tp972
a(S'@bairesdirecto'
p973
I3
tp974
a(S'@Droge_Grappen'
p975
I3
tp976
a(S'@CPJoan_'
p977
I3
tp978
a(S'@BBCKimGhattas'
p979
I3
tp980
a(S'@GooiseKids'
p981
I3
tp982
a(S'@fatihsonmezzz'
p983
I3
tp984
a(S'@Berendzzz'
p985
I3
tp986
a(S'@karstenklein'
p987
I3
tp988
a(S'@Groentebroer'
p989
I3
tp990
a(S'@gemeentealkmaar'
p991
I3
tp992
a(S'@SonHaberHolland'
p993
I3
tp994
a(S'@kajleers'
p995
I3
tp996
a(S'@SafaeAK_'
p997
I3
tp998
a(S'@TERRORKID_'
p999
I3
tp1000
a(S'@JouwStylist'
p1001
I3
tp1002
a(S'@Burgerweeshuis'
p1003
I3
tp1004
a(S'@aardengelpiet'
p1005
I3
tp1006
a(S'@SP_Amsterdam'
p1007
I3
tp1008
a(S'@marcodefeiter'
p1009
I3
tp1010
a(S'@MaximeMBz'
p1011
I3
tp1012
a(S'@EvaMostowski'
p1013
I3
tp1014
a(S'@ronaldwielstra'
p1015
I3
tp1016
a(S'@RA_Hendriks'
p1017
I3
tp1018
a(S'@MwahNL'
p1019
I3
tp1020
a(S'@picturedrops'
p1021
I3
tp1022
a(S'@WvHCommunicatie'
p1023
I3
tp1024
a(S'@Nicole_Holla'
p1025
I3
tp1026
a(S'@onmissbaar'
p1027
I3
tp1028
a(S'@deBunschoter'
p1029
I3
tp1030
a(S'@DEMIISERENA'
p1031
I3
tp1032
a(S'@stefanydsm_'
p1033
I3
tp1034
a(S'@RidleyMarc'
p1035
I3
tp1036
a(S'@ALabCodum'
p1037
I3
tp1038
a(S'@bredavandaag'
p1039
I3
tp1040
a(S'@AmirContra'
p1041
I3
tp1042
a(S'@LiavanBekhoven'
p1043
I3
tp1044
a(S'@sabrinarockt'
p1045
I3
tp1046
a(S'@DuffMcKagan'
p1047
I3
tp1048
a(S'@Dierbescherming'
p1049
I3
tp1050
a(S'@EltonWeirdo'
p1051
I3
tp1052
a(S'@Events_NL'
p1053
I3
tp1054
a(S'@Gvanderwiel'
p1055
I3
tp1056
a(S'@asltuna'
p1057
I3
tp1058
a(S'@erdi2007'
p1059
I3
tp1060
a(S'@SPIENederland'
p1061
I3
tp1062
a(S'@smitpa_sound'
p1063
I3
tp1064
a(S'@RoadToAmsterdm'
p1065
I3
tp1066
a(S'@ttcircuitassen'
p1067
I3
tp1068
a(S'@dewegvooruit'
p1069
I3
tp1070
a(S'@dordtcentraal'
p1071
I3
tp1072
a(S'@Contentgirl'
p1073
I3
tp1074
a(S'@aayymmeerriicc'
p1075
I3
tp1076
a(S'@GoldFishLive'
p1077
I3
tp1078
a(S'@Caglarsipahi'
p1079
I3
tp1080
a(S'@BijhetStrand'
p1081
I3
tp1082
a(S'@ArtsHolland'
p1083
I3
tp1084
a(S'@GenivaShania'
p1085
I3
tp1086
a(S'@lekkere_kontjes'
p1087
I3
tp1088
a(S'@edugoldenberg'
p1089
I3
tp1090
a(S'@rcspakenburg'
p1091
I3
tp1092
a(S'@ProfLeone'
p1093
I3
tp1094
a(S'@Lyghiinoo'
p1095
I3
tp1096
a(S'@demmaa'
p1097
I3
tp1098
a(S'@gemeenteHIA'
p1099
I3
tp1100
a(S'@aprilTMO'
p1101
I3
tp1102
a(S'@WhitneyAshanti'
p1103
I3
tp1104
a(S'@Arriva_NL'
p1105
I3
tp1106
a(S'@Bruisend2013'
p1107
I3
tp1108
a(S'@VROUW_tweets'
p1109
I3
tp1110
a(S'@TopmanUK'
p1111
I3
tp1112
a(S'@Colorjay'
p1113
I3
tp1114
a(S'@WilmaH'
p1115
I3
tp1116
a(S'@BiebsDutchies'
p1117
I3
tp1118
a(S'@jellefrencken'
p1119
I3
tp1120
a(S'@ReneBijmolt1973'
p1121
I3
tp1122
a(S'@goeliaaaa'
p1123
I3
tp1124
a(S'@shawnbastvrd'
p1125
I3
tp1126
a(S'@legroep'
p1127
I3
tp1128
a(S'@fabiennesabrina'
p1129
I3
tp1130
a(S'@keremgelen'
p1131
I3
tp1132
a(S'@unive'
p1133
I3
tp1134
a(S'@EA_EVENTS'
p1135
I3
tp1136
a(S'@ronfresen'
p1137
I3
tp1138
a(S'@HBOnl'
p1139
I3
tp1140
a(S'@ruuddewild'
p1141
I3
tp1142
a(S'@KORPSDERPLAGEN'
p1143
I3
tp1144
a(S'@Solliciterennl'
p1145
I3
tp1146
a(S'@sonduraaak'
p1147
I3
tp1148
a(S'@Sasha_XVJ'
p1149
I3
tp1150
a(S'@dwdd'
p1151
I3
tp1152
a(S'@_Steffa_'
p1153
I3
tp1154
a(S'@mrsmercedes_'
p1155
I3
tp1156
a(S'@thkuijpers'
p1157
I3
tp1158
a(S'@Mannenhumor'
p1159
I3
tp1160
a(S'@texelsecourant'
p1161
I3
tp1162
a(S'@Bollest'
p1163
I3
tp1164
a(S'@nisaxarina'
p1165
I3
tp1166
a(S'@RTLNieuwsFacts'
p1167
I3
tp1168
a(S'@GhizlanBS'
p1169
I3
tp1170
a(S'@AnouckPyn'
p1171
I3
tp1172
a(S'@FeyenoordTL'
p1173
I3
tp1174
a(S'@iiAlycia'
p1175
I3
tp1176
a(S'@EelcovdV'
p1177
I3
tp1178
a(S'@SadetKarabulut'
p1179
I3
tp1180
a(S'@Geefeencijferx_'
p1181
I3
tp1182
a(S'@RTLBoulevardnl'
p1183
I3
tp1184
a(S'@alexandralou84'
p1185
I3
tp1186
a(S'@ikbenmacey'
p1187
I3
tp1188
a(S'@veelplegerslely'
p1189
I3
tp1190
a(S'@Flitsnieuws'
p1191
I3
tp1192
a(S'@glea'
p1193
I3
tp1194
a(S'@Maarten_Chicha'
p1195
I3
tp1196
a(S'@fiscaalmemo_app'
p1197
I3
tp1198
a(S'@JOR_ID'
p1199
I3
tp1200
a(S'@karinaygm'
p1201
I3
tp1202
a(S'@wouter_wolfkamp'
p1203
I3
tp1204
a(S'@carmoede'
p1205
I3
tp1206
a(S'@MTTCW'
p1207
I3
tp1208
a(S'@MaaikeEliza'
p1209
I3
tp1210
a(S'@maximafm_radio'
p1211
I3
tp1212
a(S'@mansinamsterdam'
p1213
I3
tp1214
a(S'@MoreThanGoldNL'
p1215
I3
tp1216
a(S'@walshyfire'
p1217
I3
tp1218
a(S'@wolterkroes1'
p1219
I3
tp1220
a(S'@HumorBaas'
p1221
I3
tp1222
a(S'@tomlinchapels'
p1223
I3
tp1224
a(S'@_SIHAMOUARDA'
p1225
I3
tp1226
a(S'@Openluchtmuseum'
p1227
I3
tp1228
a(S'@iPatrick__'
p1229
I3
tp1230
a(S'@DWilkinsonCNN'
p1231
I3
tp1232
a(S'@HuubBellemakers'
p1233
I3
tp1234
a(S'@RauwCC'
p1235
I3
tp1236
a(S'@Shell_Nederland'
p1237
I3
tp1238
a(S'@VeenMart'
p1239
I3
tp1240
a(S'@Jungfolk'
p1241
I3
tp1242
a(S'@politienop'
p1243
I3
tp1244
a(S'@wdoha'
p1245
I3
tp1246
a(S'@MiguelMCortez'
p1247
I3
tp1248
a(S'@PP_deJong'
p1249
I3
tp1250
a(S'@sternde'
p1251
I3
tp1252
a(S'@keesaantjes'
p1253
I3
tp1254
a(S'@naarAmeland'
p1255
I3
tp1256
a(S'@WurkzUZB'
p1257
I3
tp1258
a(S'@DJDAIM'
p1259
I3
tp1260
a(S'@HollandDoc'
p1261
I3
tp1262
a(S'@AmsterdamMuseum'
p1263
I3
tp1264
a(S'@robertdorn'
p1265
I3
tp1266
a(S'@TDCCartoon'
p1267
I3
tp1268
a(S'@RogerrND'
p1269
I3
tp1270
a(S'@kleinenberg'
p1271
I3
tp1272
a(S'@erikmouthaanRTL'
p1273
I3
tp1274
a(S'@sukruarslan7360'
p1275
I3
tp1276
a(S'@Rabobank'
p1277
I3
tp1278
a(S'@gonzocircusmag'
p1279
I3
tp1280
a(S'@STEFFDACAMPO'
p1281
I3
tp1282
a(S'@True_Friendx'
p1283
I3
tp1284
a(S'@MaudlovesJanne'
p1285
I3
tp1286
a(S'@Joeybtev'
p1287
I2
tp1288
a(S'@X_ArianatorB'
p1289
I2
tp1290
a(S'@romania_insider'
p1291
I2
tp1292
a(S'@asielgroningen'
p1293
I2
tp1294
a(S'@PostNL'
p1295
I2
tp1296
a(S'@ADOdenHaagNws'
p1297
I2
tp1298
a(S'@FaktaBelanda'
p1299
I2
tp1300
a(S'@HartvNL'
p1301
I2
tp1302
a(S'@SjoerdPotters'
p1303
I2
tp1304
a(S'@PolAfoortOost'
p1305
I2
tp1306
a(S'@UtrechtNetwerk'
p1307
I2
tp1308
a(S'@Mysticowonen'
p1309
I2
tp1310
a(S'@rubentellegen'
p1311
I2
tp1312
a(S'@Welzijnderoos'
p1313
I2
tp1314
a(S'@BakkerijKok'
p1315
I2
tp1316
a(S'@PaBriBrus'
p1317
I2
tp1318
a(S'@Quux_NL'
p1319
I2
tp1320
a(S'@brit_borg'
p1321
I2
tp1322
a(S'@keepitcleanday'
p1323
I2
tp1324
a(S'@Erik66099'
p1325
I2
tp1326
a(S'@tienerswillen'
p1327
I2
tp1328
a(S'@radionl'
p1329
I2
tp1330
a(S'@inessx__'
p1331
I2
tp1332
a(S'@RaboCenTwente'
p1333
I2
tp1334
a(S'@silajmat'
p1335
I2
tp1336
a(S'@KINGLOUISVll'
p1337
I2
tp1338
a(S'@raregast'
p1339
I2
tp1340
a(S'@JJ_oel'
p1341
I2
tp1342
a(S'@GemeenteLeiden'
p1343
I2
tp1344
a(S'@xLieuwkje'
p1345
I2
tp1346
a(S'@_SJNx'
p1347
I2
tp1348
a(S'@freddyeikelboom'
p1349
I2
tp1350
a(S'@Calvin_SN'
p1351
I2
tp1352
a(S'@IJVVdames'
p1353
I2
tp1354
a(S'@KieraCDavies'
p1355
I2
tp1356
a(S'@MyleneFabienne'
p1357
I2
tp1358
a(S'@utrechtstad'
p1359
I2
tp1360
a(S'@OranjeComiteOU'
p1361
I2
tp1362
a(S'@ResidenceWijnen'
p1363
I2
tp1364
a(S'@200Jaar'
p1365
I2
tp1366
a(S'@Daan055'
p1367
I2
tp1368
a(S'@tanyapiranja'
p1369
I2
tp1370
a(S'@AlexBakker2'
p1371
I2
tp1372
a(S'@KoningMilo'
p1373
I2
tp1374
a(S'@moniquevanloon'
p1375
I2
tp1376
a(S'@Filmkrant'
p1377
I2
tp1378
a(S'@Giffbundy'
p1379
I2
tp1380
a(S'@KNLTB'
p1381
I2
tp1382
a(S'@ismael3H'
p1383
I2
tp1384
a(S'@BrandonTiago'
p1385
I2
tp1386
a(S'@DanMartin86'
p1387
I2
tp1388
a(S'@imadzikzik'
p1389
I2
tp1390
a(S'@ZeehondSam'
p1391
I2
tp1392
a(S'@ropzout'
p1393
I2
tp1394
a(S'@ateamyaw'
p1395
I2
tp1396
a(S'@RodStroethoff'
p1397
I2
tp1398
a(S'@djbfront'
p1399
I2
tp1400
a(S'@YounG__N'
p1401
I2
tp1402
a(S'@YlseWink'
p1403
I2
tp1404
a(S'@HavenzichtTXL'
p1405
I2
tp1406
a(S'@BRWGroningen'
p1407
I2
tp1408
a(S'@PolNoordwijk'
p1409
I2
tp1410
a(S'@xJamyyx'
p1411
I2
tp1412
a(S'@ilse_bruinsma'
p1413
I2
tp1414
a(S'@ADnl'
p1415
I2
tp1416
a(S'@weakylegs'
p1417
I2
tp1418
a(S'@TeamMonsifB'
p1419
I2
tp1420
a(S'@peterr076'
p1421
I2
tp1422
a(S'@JaszyRay'
p1423
I2
tp1424
a(S'@hannesdezanger'
p1425
I2
tp1426
a(S'@koen050'
p1427
I2
tp1428
a(S'@CulenDrukwerk'
p1429
I2
tp1430
a(S'@Steenwijkerland'
p1431
I2
tp1432
a(S'@freeamsterdam'
p1433
I2
tp1434
a(S'@SABreakingNews'
p1435
I2
tp1436
a(S'@robdenijs'
p1437
I2
tp1438
a(S'@Vakonov'
p1439
I2
tp1440
a(S'@YuBoyy_'
p1441
I2
tp1442
a(S'@PiiENx_'
p1443
I2
tp1444
a(S'@SKKYL_LUIZ'
p1445
I2
tp1446
a(S'@stevenandre1967'
p1447
I2
tp1448
a(S'@DutchEmbassyDC'
p1449
I2
tp1450
a(S'@VorstenNL'
p1451
I2
tp1452
a(S'@alhanda'
p1453
I2
tp1454
a(S'@hsutay'
p1455
I2
tp1456
a(S'@bramsmits2'
p1457
I2
tp1458
a(S'@Logistiek_nl'
p1459
I2
tp1460
a(S'@R3mm3rt'
p1461
I2
tp1462
a(S'@Comceptum'
p1463
I2
tp1464
a(S'@EftelingGolf'
p1465
I2
tp1466
a(S'@BertJonkhans'
p1467
I2
tp1468
a(S'@YousefGnaoui'
p1469
I2
tp1470
a(S'@LucTanja'
p1471
I2
tp1472
a(S'@Young_Startup'
p1473
I2
tp1474
a(S'@CleviFlex'
p1475
I2
tp1476
a(S'@RedlightTour'
p1477
I2
tp1478
a(S'@xambervb'
p1479
I2
tp1480
a(S'@_scarlettcooper'
p1481
I2
tp1482
a(S'@joosttadema'
p1483
I2
tp1484
a(S'@newbabylondh'
p1485
I2
tp1486
a(S'@Generation_City'
p1487
I2
tp1488
a(S'@bladna_nl'
p1489
I2
tp1490
a(S'@jellesdejong'
p1491
I2
tp1492
a(S'@KidRosje_x'
p1493
I2
tp1494
a(S'@Danielwitte'
p1495
I2
tp1496
a(S'@DebbievanVeghel'
p1497
I2
tp1498
a(S'@serhatkeskin'
p1499
I2
tp1500
a(S'@meknessia_'
p1501
I2
tp1502
a(S'@Koken_enzo'
p1503
I2
tp1504
a(S'@KaagenBraassem'
p1505
I2
tp1506
a(S'@sailingondreams'
p1507
I2
tp1508
a(S'@Wijkagt_Martin'
p1509
I2
tp1510
a(S'@Veeers_'
p1511
I2
tp1512
a(S'@Mussie_S'
p1513
I2
tp1514
a(S'@huibmodderkolk'
p1515
I2
tp1516
a(S'@JoelErwteman'
p1517
I2
tp1518
a(S'@pj_said_it'
p1519
I2
tp1520
a(S'@PolitieHouten'
p1521
I2
tp1522
a(S'@Kadikoy_12'
p1523
I2
tp1524
a(S'@_TijnJ'
p1525
I2
tp1526
a(S'@JULiANDEWOLF'
p1527
I2
tp1528
a(S'@missmargy3'
p1529
I2
tp1530
a(S'@saskiavandockum'
p1531
I2
tp1532
a(S'@UFILive'
p1533
I2
tp1534
a(S'@wnfnederland'
p1535
I2
tp1536
a(S'@Intergrip'
p1537
I2
tp1538
a(S'@Tamaraaa_RW'
p1539
I2
tp1540
a(S'@BigTwee'
p1541
I2
tp1542
a(S'@destadutrecht'
p1543
I2
tp1544
a(S'@MannyZ201'
p1545
I2
tp1546
a(S'@MrSilvanoo'
p1547
I2
tp1548
a(S'@annejanbrouwer'
p1549
I2
tp1550
a(S'@snowwhiteemc'
p1551
I2
tp1552
a(S'@MichaelSiebers'
p1553
I2
tp1554
a(S'@OranjeverMssl'
p1555
I2
tp1556
a(S'@Freitasxo'
p1557
I2
tp1558
a(S'@NL_Bwoman'
p1559
I2
tp1560
a(S'@LoganHuard'
p1561
I2
tp1562
a(S'@_gala_1905'
p1563
I2
tp1564
a(S'@Tiegx'
p1565
I2
tp1566
a(S'@guyborghouts'
p1567
I2
tp1568
a(S'@nutellagibiadam'
p1569
I2
tp1570
a(S'@EmileRecruit'
p1571
I2
tp1572
a(S'@atweetbythalia'
p1573
I2
tp1574
a(S'@RJordii'
p1575
I2
tp1576
a(S'@ALTIJDHONGERIG'
p1577
I2
tp1578
a(S'@tokopedas'
p1579
I2
tp1580
a(S'@fransautoglans'
p1581
I2
tp1582
a(S'@xPropje'
p1583
I2
tp1584
a(S'@indoboy_m'
p1585
I2
tp1586
a(S'@UltimateWebshop'
p1587
I2
tp1588
a(S'@PosthuisBP'
p1589
I2
tp1590
a(S'@LewedorpseBoys'
p1591
I2
tp1592
a(S'@emre4combr'
p1593
I2
tp1594
a(S'@OranjevDalfsen'
p1595
I2
tp1596
a(S'@jerellricardo'
p1597
I2
tp1598
a(S'@OsseTrotse'
p1599
I2
tp1600
a(S'@mauraisin'
p1601
I2
tp1602
a(S'@Guiinevere_'
p1603
I2
tp1604
a(S'@DaRealJimsky'
p1605
I2
tp1606
a(S'@rtvutrecht'
p1607
I2
tp1608
a(S'@Pickyourlook'
p1609
I2
tp1610
a(S'@joeyvh1'
p1611
I2
tp1612
a(S'@TeneeMontana'
p1613
I2
tp1614
a(S'@MaxFosterCNN'
p1615
I2
tp1616
a(S'@noelvanhooft'
p1617
I2
tp1618
a(S'@Amanda_Vickery'
p1619
I2
tp1620
a(S'@melimarques'
p1621
I2
tp1622
a(S'@arkovb'
p1623
I2
tp1624
a(S'@ChikitaBanana_'
p1625
I2
tp1626
a(S'@LoesStokkelaar'
p1627
I2
tp1628
a(S'@Leidenopdekaart'
p1629
I2
tp1630
a(S'@jeremiaa_'
p1631
I2
tp1632
a(S'@Shampoonista'
p1633
I2
tp1634
a(S'@Marvinverwijk'
p1635
I2
tp1636
a(S'@Karriimmmm'
p1637
I2
tp1638
a(S'@KroningApp'
p1639
I2
tp1640
a(S'@PRINSS_MMG'
p1641
I2
tp1642
a(S'@CheyenneD_'
p1643
I2
tp1644
a(S'@MoodieFactory'
p1645
I2
tp1646
a(S'@nadianouska'
p1647
I2
tp1648
a(S'@noahbockweg'
p1649
I2
tp1650
a(S'@nadiaberkelder'
p1651
I2
tp1652
a(S'@xnurrr'
p1653
I2
tp1654
a(S'@ArubaToerisme'
p1655
I2
tp1656
a(S'@Elitese_Unie'
p1657
I2
tp1658
a(S'@xnedalovesyou'
p1659
I2
tp1660
a(S'@DonnovanRW'
p1661
I2
tp1662
a(S'@Rastaboyke'
p1663
I2
tp1664
a(S'@muzikfestivali'
p1665
I2
tp1666
a(S'@KenzaMarzouqi'
p1667
I2
tp1668
a(S'@LauraVermaat'
p1669
I2
tp1670
a(S'@RdamTopsport'
p1671
I2
tp1672
a(S'@Middelburgdronk'
p1673
I2
tp1674
a(S'@VVVUtrecht'
p1675
I2
tp1676
a(S'@Maluku7'
p1677
I2
tp1678
a(S'@1907vp'
p1679
I2
tp1680
a(S'@OhSarcasme'
p1681
I2
tp1682
a(S'@WorkoutAnnen'
p1683
I2
tp1684
a(S'@IAMMOVEMENTER'
p1685
I2
tp1686
a(S'@vid'
p1687
I2
tp1688
a(S'@PodiumRadio4'
p1689
I2
tp1690
a(S'@ICIMarketing'
p1691
I2
tp1692
a(S'@40PlusRelatie'
p1693
I2
tp1694
a(S'@fred_beumer'
p1695
I2
tp1696
a(S'@maartenaustirol'
p1697
I2
tp1698
a(S'@rozemaandag'
p1699
I2
tp1700
a(S'@ayetomlinson_'
p1701
I2
tp1702
a(S'@Bambino627'
p1703
I2
tp1704
a(S'@kennisnet'
p1705
I2
tp1706
a(S'@VanVelzenMusic'
p1707
I2
tp1708
a(S'@Computeridee'
p1709
I2
tp1710
a(S'@zitlekker'
p1711
I2
tp1712
a(S'@gerritvisserurk'
p1713
I2
tp1714
a(S'@VirginiaBuzz'
p1715
I2
tp1716
a(S'@hartvanleerdam'
p1717
I2
tp1718
a(S'@bluesky1907'
p1719
I2
tp1720
a(S'@MaraMoberg'
p1721
I2
tp1722
a(S'@010_noord'
p1723
I2
tp1724
a(S'@ZAMAN_Benelux'
p1725
I2
tp1726
a(S'@DNB_NL'
p1727
I2
tp1728
a(S'@TK_TR'
p1729
I2
tp1730
a(S'@1espresso'
p1731
I2
tp1732
a(S'@amsterdamized'
p1733
I2
tp1734
a(S'@Mainiacsxo'
p1735
I2
tp1736
a(S'@Relie_star'
p1737
I2
tp1738
a(S'@Westervoort'
p1739
I2
tp1740
a(S'@WestCordHotels'
p1741
I2
tp1742
a(S'@SWEETfeesten'
p1743
I2
tp1744
a(S'@hemelbestormers'
p1745
I2
tp1746
a(S'@Merijn__'
p1747
I2
tp1748
a(S'@SteenwkrCourant'
p1749
I2
tp1750
a(S'@GemDordrecht'
p1751
I2
tp1752
a(S'@Naaktemeiden'
p1753
I2
tp1754
a(S'@BarttJ'
p1755
I2
tp1756
a(S'@ZOOMnl'
p1757
I2
tp1758
a(S'@Yohannement_'
p1759
I2
tp1760
a(S'@WeduweJoustra'
p1761
I2
tp1762
a(S'@DenHaagBaan'
p1763
I2
tp1764
a(S'@FredZeppelin12'
p1765
I2
tp1766
a(S'@frankvnleeuwen'
p1767
I2
tp1768
a(S'@TeleGuus'
p1769
I2
tp1770
a(S'@DjKypski'
p1771
I2
tp1772
a(S'@D0WNiEKiD'
p1773
I2
tp1774
a(S'@Hanneke_IKbv'
p1775
I2
tp1776
a(S'@dopeshania_'
p1777
I2
tp1778
a(S'@nourdeenw'
p1779
I2
tp1780
a(S'@ReneDercksen'
p1781
I2
tp1782
a(S'@storytellingmts'
p1783
I2
tp1784
a(S'@Century_DJ'
p1785
I2
tp1786
a(S'@gemSpijkenisse'
p1787
I2
tp1788
a(S'@erryverhoeven'
p1789
I2
tp1790
a(S'@oxfootpantyhose'
p1791
I2
tp1792
a(S'@transitoRJO'
p1793
I2
tp1794
a(S'@SmoesjesTip'
p1795
I2
tp1796
a(S'@goese_polder'
p1797
I2
tp1798
a(S'@Concept7'
p1799
I2
tp1800
a(S'@barrysmit'
p1801
I2
tp1802
a(S'@NoorWS'
p1803
I2
tp1804
a(S'@robinoverweel'
p1805
I2
tp1806
a(S'@feestlelystad'
p1807
I2
tp1808
a(S'@ellenwauters'
p1809
I2
tp1810
a(S'@DrouwenerzandNL'
p1811
I2
tp1812
a(S'@le_sans'
p1813
I2
tp1814
a(S'@LaMajda'
p1815
I2
tp1816
a(S'@hvondelen'
p1817
I2
tp1818
a(S'@_ELINEXO'
p1819
I2
tp1820
a(S'@leidschdagblad'
p1821
I2
tp1822
a(S'@hanslaroes'
p1823
I2
tp1824
a(S'@ArianaFriday'
p1825
I2
tp1826
a(S'@hananHRW'
p1827
I2
tp1828
a(S'@store_support'
p1829
I2
tp1830
a(S'@rauhlsocean'
p1831
I2
tp1832
a(S'@Quintin24'
p1833
I2
tp1834
a(S'@WillemOltmans'
p1835
I2
tp1836
a(S'@JanSicko'
p1837
I2
tp1838
a(S'@Fragmentlive1'
p1839
I2
tp1840
a(S'@Hoogvlietsuper'
p1841
I2
tp1842
a(S'@GietersBelang'
p1843
I2
tp1844
a(S'@laurienhoos'
p1845
I2
tp1846
a(S'@NLtracks'
p1847
I2
tp1848
a(S'@GietenCom'
p1849
I2
tp1850
a(S'@abel7conchales'
p1851
I2
tp1852
a(S'@Kijkonlinegames'
p1853
I2
tp1854
a(S'@hetklokhuis'
p1855
I2
tp1856
a(S'@ichaosnl'
p1857
I2
tp1858
a(S'@iiLovePVR_'
p1859
I2
tp1860
a(S'@imagine1Dupdate'
p1861
I2
tp1862
a(S'@annemiekemeurs'
p1863
I2
tp1864
a(S'@svanherpen'
p1865
I2
tp1866
a(S'@entjoe'
p1867
I2
tp1868
a(S'@Horse_ebooks'
p1869
I2
tp1870
a(S'@bibliotheekgent'
p1871
I2
tp1872
a(S'@sparvanommen'
p1873
I2
tp1874
a(S'@BlooSEM'
p1875
I2
tp1876
a(S'@Major1665'
p1877
I2
tp1878
a(S'@AyaBundy'
p1879
I2
tp1880
a(S'@oriolmartinez5'
p1881
I2
tp1882
a(S'@KristenPGIP'
p1883
I2
tp1884
a(S'@marechaussee'
p1885
I2
tp1886
a(S'@HacoSigns'
p1887
I2
tp1888
a(S'@jacobdeboer33'
p1889
I2
tp1890
a(S'@BNDeStem'
p1891
I2
tp1892
a(S'@bsoumahu_'
p1893
I2
tp1894
a(S'@KS_keukens'
p1895
I2
tp1896
a(S'@pvklinken'
p1897
I2
tp1898
a(S'@070Regillio'
p1899
I2
tp1900
a(S'@PotatoLaces'
p1901
I2
tp1902
a(S'@mashemele'
p1903
I2
tp1904
a(S'@legioennieuws'
p1905
I2
tp1906
a(S'@RileyVinck'
p1907
I2
tp1908
a(S'@DorpsbelangEns'
p1909
I2
tp1910
a(S'@Tobias_Tris46'
p1911
I2
tp1912
a(S'@LUNANIENKE'
p1913
I2
tp1914
a(S'@SBS6'
p1915
I2
tp1916
a(S'@Break_Cycles'
p1917
I2
tp1918
a(S'@AzizaMounah'
p1919
I2
tp1920
a(S'@KIDSUBLIME'
p1921
I2
tp1922
a(S'@xxnatasjaa'
p1923
I2
tp1924
a(S'@C_Moorman'
p1925
I2
tp1926
a(S'@hmtstkn1907'
p1927
I2
tp1928
a(S'@Tanja_Abbas'
p1929
I2
tp1930
a(S'@vocnederland'
p1931
I2
tp1932
a(S'@FijnProeversNL'
p1933
I2
tp1934
a(S'@PatrickWiercx'
p1935
I2
tp1936
a(S'@fotomiche'
p1937
I2
tp1938
a(S'@Zevenaar'
p1939
I2
tp1940
a(S'@MeldkamerNN'
p1941
I2
tp1942
a(S'@Hannesdepaauw'
p1943
I2
tp1944
a(S'@ThisisNoizy'
p1945
I2
tp1946
a(S'@tnhb'
p1947
I2
tp1948
a(S'@BrouwerijtIJ'
p1949
I2
tp1950
a(S'@glm_D_v_Hunnik'
p1951
I2
tp1952
a(S'@arkenbouwtweet'
p1953
I2
tp1954
a(S'@DanHF'
p1955
I2
tp1956
a(S'@koenderegt'
p1957
I2
tp1958
a(S'@Trishophuijsen'
p1959
I2
tp1960
a(S'@MirjamAfrt'
p1961
I2
tp1962
a(S'@GfbAngels'
p1963
I2
tp1964
a(S'@iishortieluana'
p1965
I2
tp1966
a(S'@anjavannorel'
p1967
I2
tp1968
a(S'@mrpeach1985'
p1969
I2
tp1970
a(S'@Arssinn'
p1971
I2
tp1972
a(S'@Btch_YouFoolin'
p1973
I2
tp1974
a(S'@erickmorillo'
p1975
I2
tp1976
a(S'@dollejoncker'
p1977
I2
tp1978
a(S'@martijnkolkman'
p1979
I2
tp1980
a(S'@samiranador'
p1981
I2
tp1982
a(S'@xkusxcheyenne'
p1983
I2
tp1984
a(S'@Budje75'
p1985
I2
tp1986
a(S'@margreetdeboer'
p1987
I2
tp1988
a(S'@Top_moppen'
p1989
I2
tp1990
a(S'@giorgiosanches1'
p1991
I2
tp1992
a(S'@Cultuur19'
p1993
I2
tp1994
a(S'@SarahSantillann'
p1995
I2
tp1996
a(S'@adamevadeserie'
p1997
I2
tp1998
a(S'@CosmetitextPR'
p1999
I2
tp2000
a(S'@ErickMorillo'
p2001
I2
tp2002
a(S'@Treaax'
p2003
I2
tp2004
a(S'@ElenedeJong'
p2005
I2
tp2006
a(S'@Roberto_Tan'
p2007
I2
tp2008
a(S'@Televisiereizen'
p2009
I2
tp2010
a(S'@Stoneyhippie'
p2011
I2
tp2012
a(S'@UTNieuws'
p2013
I2
tp2014
a(S'@AVRNEWS'
p2015
I2
tp2016
a(S'@salam1211'
p2017
I2
tp2018
a(S'@yanronconi'
p2019
I2
tp2020
a(S'@ED_Regio'
p2021
I2
tp2022
a(S'@Wilma_Swarts'
p2023
I2
tp2024
a(S'@Sneekpromotion'
p2025
I2
tp2026
a(S'@IamsterdamPress'
p2027
I2
tp2028
a(S'@LeRoiDanse1'
p2029
I2
tp2030
a(S'@Mokums'
p2031
I2
tp2032
a(S'@aisha_30'
p2033
I2
tp2034
a(S'@marokko'
p2035
I2
tp2036
a(S'@kazewor'
p2037
I2
tp2038
a(S'@Ingexkusje'
p2039
I2
tp2040
a(S'@TheChampions18'
p2041
I2
tp2042
a(S'@Loubsenice_'
p2043
I2
tp2044
a(S'@Omdenken'
p2045
I2
tp2046
a(S'@trendsBe'
p2047
I2
tp2048
a(S'@ChelsiSam'
p2049
I2
tp2050
a(S'@PI6ASD'
p2051
I2
tp2052
a(S'@iHeartJustin_NL'
p2053
I2
tp2054
a(S'@CleovanWijk'
p2055
I2
tp2056
a(S'@VARnieuwsblad'
p2057
I2
tp2058
a(S'@nieuws247'
p2059
I2
tp2060
a(S'@Elsswag'
p2061
I2
tp2062
a(S'@hvkbr'
p2063
I2
tp2064
a(S'@GeorgeHuisman'
p2065
I2
tp2066
a(S'@iSuperKurdoo'
p2067
I2
tp2068
a(S'@BruseNacht'
p2069
I2
tp2070
a(S'@BensFashion'
p2071
I2
tp2072
a(S'@nancygerritsen'
p2073
I2
tp2074
a(S'@josineevers'
p2075
I2
tp2076
a(S'@cardservices'
p2077
I2
tp2078
a(S'@bin900yedi'
p2079
I2
tp2080
a(S'@tweethondSPIKE'
p2081
I2
tp2082
a(S'@TopslijtHerkert'
p2083
I2
tp2084
a(S'@floorrrr_'
p2085
I2
tp2086
a(S'@mickjohan'
p2087
I2
tp2088
a(S'@CrescendoStwijk'
p2089
I2
tp2090
a(S'@Koningsdag_Info'
p2091
I2
tp2092
a(S'@Los_Fabulantes'
p2093
I2
tp2094
a(S'@fonshof'
p2095
I2
tp2096
a(S'@GerardHarbers'
p2097
I2
tp2098
a(S'@LiandroMendes_'
p2099
I2
tp2100
a(S'@Reemigio'
p2101
I2
tp2102
a(S'@Sneaker_Sandy'
p2103
I2
tp2104
a(S'@larsenal_'
p2105
I2
tp2106
a(S'@SamxSaster'
p2107
I2
tp2108
a(S'@djsimbad'
p2109
I2
tp2110
a(S'@Hiiskee'
p2111
I2
tp2112
a(S'@ArnaldoOtegi'
p2113
I2
tp2114
a(S'@janjanadels'
p2115
I2
tp2116
a(S'@knooppunt'
p2117
I2
tp2118
a(S'@CafedeKoning'
p2119
I2
tp2120
a(S'@JeffreyvHinte'
p2121
I2
tp2122
a(S'@AjaxFansAFCA'
p2123
I2
tp2124
a(S'@RomantischeTips'
p2125
I2
tp2126
a(S'@Pubbugy'
p2127
I2
tp2128
a(S'@PartyRoosEvents'
p2129
I2
tp2130
a(S'@earthmattersnl'
p2131
I2
tp2132
a(S'@NienkeBloem'
p2133
I2
tp2134
a(S'@BeMineNJHoran'
p2135
I2
tp2136
a(S'@16andpregnant__'
p2137
I2
tp2138
a(S'@Obstakels'
p2139
I2
tp2140
a(S'@JohannaMinnaard'
p2141
I2
tp2142
a(S'@Jonaa_010'
p2143
I2
tp2144
a(S'@romyverschuur'
p2145
I2
tp2146
a(S'@JamalAitMoumad'
p2147
I2
tp2148
a(S'@TerraNoticiasES'
p2149
I2
tp2150
a(S'@woukevscherrenb'
p2151
I2
tp2152
a(S'@TvValkenburg'
p2153
I2
tp2154
a(S'@RealShowstopper'
p2155
I2
tp2156
a(S'@Schrijfs_Els'
p2157
I2
tp2158
a(S'@HEontap'
p2159
I2
tp2160
a(S'@eenvandaag'
p2161
I2
tp2162
a(S'@Y0299'
p2163
I2
tp2164
a(S'@SpartiateAfro'
p2165
I2
tp2166
a(S'@peterboorsma'
p2167
I2
tp2168
a(S'@Momofthreeunder'
p2169
I2
tp2170
a(S'@PolitieZAW'
p2171
I2
tp2172
a(S'@GerritsBram'
p2173
I2
tp2174
a(S'@L_voordeOranje'
p2175
I2
tp2176
a(S'@MonFleuri'
p2177
I2
tp2178
a(S'@AutogrillNL'
p2179
I2
tp2180
a(S'@Holland_Topics'
p2181
I2
tp2182
a(S'@SODPROUD__x'
p2183
I2
tp2184
a(S'@rhsmusic'
p2185
I2
tp2186
a(S'@CassVinograd'
p2187
I2
tp2188
a(S'@braintobrain'
p2189
I2
tp2190
a(S'@Arjantweets'
p2191
I2
tp2192
a(S'@ScholarshipsGL'
p2193
I2
tp2194
a(S'@xnoomroos_'
p2195
I2
tp2196
a(S'@_6__Fener__0_'
p2197
I2
tp2198
a(S'@SweetestGyal_'
p2199
I2
tp2200
a(S'@iNadiaXO'
p2201
I2
tp2202
a(S'@roellenoir'
p2203
I2
tp2204
a(S'@SVHecke'
p2205
I2
tp2206
a(S'@Jameaa'
p2207
I2
tp2208
a(S'@wapenvanurk1'
p2209
I2
tp2210
a(S'@iiYOYY_'
p2211
I2
tp2212
a(S'@NTFU'
p2213
I2
tp2214
a(S'@FantasticRtweet'
p2215
I2
tp2216
a(S'@selcukeren5101'
p2217
I2
tp2218
a(S'@mediatvnl'
p2219
I2
tp2220
a(S'@huseyindurak'
p2221
I2
tp2222
a(S'@TPOnl'
p2223
I2
tp2224
a(S'@BNDeStemBreda'
p2225
I2
tp2226
a(S'@GloComerma'
p2227
I2
tp2228
a(S'@xJustinsBitch'
p2229
I2
tp2230
a(S'@tygovangalen'
p2231
I2
tp2232
a(S'@Darth_Hideous'
p2233
I2
tp2234
a(S'@IsisJoannax'
p2235
I2
tp2236
a(S'@Gleediction'
p2237
I2
tp2238
a(S'@EIGENWIJSHEID_'
p2239
I2
tp2240
a(S'@ContactMidden'
p2241
I2
tp2242
a(S'@__jochem'
p2243
I2
tp2244
a(S'@SinEmbargoMX'
p2245
I2
tp2246
a(S'@scooterslwd'
p2247
I2
tp2248
a(S'@djcothebest'
p2249
I2
tp2250
a(S'@fucktyron'
p2251
I2
tp2252
a(S'@naaathann'
p2253
I2
tp2254
a(S'@tagesschau'
p2255
I2
tp2256
a(S'@olvg'
p2257
I2
tp2258
a(S'@yakupsevindik'
p2259
I2
tp2260
a(S'@autotaalglas_mm'
p2261
I2
tp2262
a(S'@Emrh1907'
p2263
I2
tp2264
a(S'@KRISMANON_'
p2265
I2
tp2266
a(S'@krulleboln'
p2267
I2
tp2268
a(S'@droomvoorland'
p2269
I2
tp2270
a(S'@jandejong'
p2271
I2
tp2272
a(S'@M2EHV'
p2273
I2
tp2274
a(S'@GeschiedeNieuws'
p2275
I2
tp2276
a(S'@SjaakBral'
p2277
I2
tp2278
a(S'@Zvezzdana'
p2279
I2
tp2280
a(S'@GoedVoutPB'
p2281
I2
tp2282
a(S'@_Polytechnique_'
p2283
I2
tp2284
a(S'@ILAYDAK__'
p2285
I2
tp2286
a(S'@LaDoubleMers'
p2287
I2
tp2288
a(S'@Moveltraxx'
p2289
I2
tp2290
a(S'@Dimayeron'
p2291
I2
tp2292
a(S'@dekraamvogel'
p2293
I2
tp2294
a(S'@CanaryNur'
p2295
I2
tp2296
a(S'@DsbrgOranje'
p2297
I2
tp2298
a(S'@puria97'
p2299
I2
tp2300
a(S'@ahmetsaiducar'
p2301
I2
tp2302
a(S'@NaomieAimee'
p2303
I2
tp2304
a(S'@lukejansen_31'
p2305
I2
tp2306
a(S'@OnlyHipHopFacts'
p2307
I2
tp2308
a(S'@MaudMeijer1'
p2309
I2
tp2310
a(S'@Juliaa0492'
p2311
I2
tp2312
a(S'@rinnyjams'
p2313
I2
tp2314
a(S'@tekoopinmakkum'
p2315
I2
tp2316
a(S'@undercover001'
p2317
I2
tp2318
a(S'@Kokenmetkarin'
p2319
I2
tp2320
a(S'@foodinspiration'
p2321
I2
tp2322
a(S'@katrienver'
p2323
I2
tp2324
a(S'@0900Inbraak'
p2325
I2
tp2326
a(S'@Bas_AFCA12'
p2327
I2
tp2328
a(S'@ufuuktaan_'
p2329
I2
tp2330
a(S'@Seangrd'
p2331
I2
tp2332
a(S'@Cardcetera'
p2333
I2
tp2334
a(S'@scmp_news'
p2335
I2
tp2336
a(S'@OM_ZuidHolland'
p2337
I2
tp2338
a(S'@WA_H_Jansen'
p2339
I2
tp2340
a(S'@LostGirlQuotes'
p2341
I2
tp2342
a(S'@nickrenooij'
p2343
I2
tp2344
a(S'@rocnijmegen'
p2345
I2
tp2346
a(S'@demminkdoofpot'
p2347
I2
tp2348
a(S'@IngeBeenmode'
p2349
I2
tp2350
a(S'@GemeenteUtrecht'
p2351
I2
tp2352
a(S'@heyimAna_'
p2353
I2
tp2354
a(S'@Gemeente_Lwd'
p2355
I2
tp2356
a(S'@justinsrumor'
p2357
I2
tp2358
a(S'@Koninginnemarkt'
p2359
I2
tp2360
a(S'@annaganzevoort'
p2361
I2
tp2362
a(S'@farazjanatra_'
p2363
I2
tp2364
a(S'@LSA_RTL'
p2365
I2
tp2366
a(S'@DaanSchmidt'
p2367
I2
tp2368
a(S'@HllSylgn1907'
p2369
I2
tp2370
a(S'@Sedatvraagteken'
p2371
I2
tp2372
a(S'@chintomendoza'
p2373
I2
tp2374
a(S'@MouradFTP'
p2375
I2
tp2376
a(S'@pacodemangeles'
p2377
I2
tp2378
a(S'@pabloirossi'
p2379
I2
tp2380
a(S'@KindercoachDV'
p2381
I2
tp2382
a(S'@gl_fbli'
p2383
I2
tp2384
a(S'@mariannethieme'
p2385
I2
tp2386
a(S'@Gorkemmcolak'
p2387
I2
tp2388
a(S'@JennyBootsNL'
p2389
I2
tp2390
a(S'@Official_DJV'
p2391
I2
tp2392
a(S'@DeBalie'
p2393
I2
tp2394
a(S'@mobilevikingsNL'
p2395
I2
tp2396
a(S'@FeyenoordTwit'
p2397
I2
tp2398
a(S'@picturesnailart'
p2399
I2
tp2400
a(S'@niena_x'
p2401
I2
tp2402
a(S'@CedricVanLoon'
p2403
I2
tp2404
a(S'@CallmeSherO'
p2405
I2
tp2406
a(S'@ngagemedia'
p2407
I2
tp2408
a(S'@SunneryJames'
p2409
I2
tp2410
a(S'@Zafirah_M'
p2411
I2
tp2412
a(S'@BakermatMusic'
p2413
I2
tp2414
a(S'@ErikvanBruggen'
p2415
I2
tp2416
a(S'@Enzioyoh_'
p2417
I2
tp2418
a(S'@Stadsbeheer010'
p2419
I2
tp2420
a(S'@DiabloBlvd'
p2421
I2
tp2422
a(S'@JoelSerphos'
p2423
I2
tp2424
a(S'@Karmijntekst'
p2425
I2
tp2426
a(S'@TheMagicShow'
p2427
I2
tp2428
a(S'@borkdude'
p2429
I2
tp2430
a(S'@Sinem_oezdemir'
p2431
I2
tp2432
a(S'@prokfitch'
p2433
I2
tp2434
a(S'@_tisjeGirlShary'
p2435
I2
tp2436
a(S'@Romyy18'
p2437
I2
tp2438
a(S'@RishiiKM_'
p2439
I2
tp2440
a(S'@Brucepost'
p2441
I2
tp2442
a(S'@xEssje'
p2443
I2
tp2444
a(S'@AKM1907'
p2445
I2
tp2446
a(S'@jelledkoning'
p2447
I2
tp2448
a(S'@Narobot'
p2449
I2
tp2450
a(S'@Accountsancynws'
p2451
I2
tp2452
a(S'@AA_MeesPierson'
p2453
I2
tp2454
a(S'@maartenhagg'
p2455
I2
tp2456
a(S'@rubenvanlente'
p2457
I2
tp2458
a(S'@LOMBOK007'
p2459
I2
tp2460
a(S'@HPdeTijdNL'
p2461
I2
tp2462
a(S'@xiiLOVEFOOD'
p2463
I2
tp2464
a(S'@U_Wake_UP'
p2465
I2
tp2466
a(S'@FashionchickUK'
p2467
I2
tp2468
a(S'@MariaElenaAcos1'
p2469
I2
tp2470
a(S'@_JURK_'
p2471
I2
tp2472
a(S'@shortynish_'
p2473
I2
tp2474
a(S'@joe_i'
p2475
I2
tp2476
a(S'@Onnatuurlijk'
p2477
I2
tp2478
a(S'@ErcanEzgin'
p2479
I2
tp2480
a(S'@Politie_Breda'
p2481
I2
tp2482
a(S'@xxstefanie__'
p2483
I2
tp2484
a(S'@obk'
p2485
I2
tp2486
a(S'@FunForAllatpark'
p2487
I2
tp2488
a(S'@iAmVFR_'
p2489
I2
tp2490
a(S'@4vmbolp'
p2491
I2
tp2492
a(S'@TC_deKoning'
p2493
I2
tp2494
a(S'@LukeHemmiings'
p2495
I2
tp2496
a(S'@plusvantetering'
p2497
I2
tp2498
a(S'@IndraRomgens'
p2499
I2
tp2500
a(S'@OnikaLoverr'
p2501
I2
tp2502
a(S'@MiniRoon'
p2503
I2
tp2504
a(S'@Moussa1907'
p2505
I2
tp2506
a(S'@anasexperiment'
p2507
I2
tp2508
a(S'@esmeemulder'
p2509
I2
tp2510
a(S'@KNGFGeleidehond'
p2511
I2
tp2512
a(S'@stephaniedemner'
p2513
I2
tp2514
a(S'@HeyitsChelseaxo'
p2515
I2
tp2516
a(S'@sanchanta'
p2517
I2
tp2518
a(S'@susannealt'
p2519
I2
tp2520
a(S'@_MACFLURRY'
p2521
I2
tp2522
a(S'@diegoguelar'
p2523
I2
tp2524
a(S'@RTVRondeVenen'
p2525
I2
tp2526
a(S'@kdagamsterdam'
p2527
I2
tp2528
a(S'@SUPERAAPIE_'
p2529
I2
tp2530
a(S'@DebbySchut89'
p2531
I2
tp2532
a(S'@ToekomstNatuur'
p2533
I2
tp2534
a(S'@MusicPlaceNL'
p2535
I2
tp2536
a(S'@arnouthoekstra'
p2537
I2
tp2538
a(S'@VoetbalStadion_'
p2539
I2
tp2540
a(S'@UitburoGro'
p2541
I2
tp2542
a(S'@poeetweet'
p2543
I2
tp2544
a(S'@fluffyguy'
p2545
I2
tp2546
a(S'@____Alex_____'
p2547
I2
tp2548
a(S'@ziyatog'
p2549
I2
tp2550
a(S'@101Wisse'
p2551
I2
tp2552
a(S'@SensiblePeanut'
p2553
I2
tp2554
a(S'@MultimateGieten'
p2555
I2
tp2556
a(S'@thrillerboek'
p2557
I2
tp2558
a(S'@BPZuidOost'
p2559
I2
tp2560
a(S'@Hattersley1977'
p2561
I2
tp2562
a(S'@DianVersteeg1'
p2563
I2
tp2564
a(S'@MSxDJ'
p2565
I2
tp2566
a(S'@vendeleau'
p2567
I2
tp2568
a(S'@sterrennl'
p2569
I2
tp2570
a(S'@Aaron_Gill'
p2571
I2
tp2572
a(S'@HardHoofd'
p2573
I2
tp2574
a(S'@Omnitrans_Int'
p2575
I2
tp2576
a(S'@PPGElst'
p2577
I2
tp2578
a(S'@UltrasAmmo'
p2579
I2
tp2580
a(S'@sanasannex'
p2581
I2
tp2582
a(S'@SiebeSietsma'
p2583
I2
tp2584
a(S'@JessieYacintha_'
p2585
I2
tp2586
a(S'@DeRL_Terborg'
p2587
I2
tp2588
a(S'@JONET_nl'
p2589
I2
tp2590
a(S'@Jan_Bennink'
p2591
I2
tp2592
a(S'@christenunie'
p2593
I2
tp2594
a(S'@bodysuppliesnl'
p2595
I2
tp2596
a(S'@jcereims'
p2597
I2
tp2598
a(S'@QPark_Nederland'
p2599
I2
tp2600
a(S'@Btisaamm'
p2601
I2
tp2602
a(S'@xlisahilena'
p2603
I2
tp2604
a(S'@isermeer'
p2605
I2
tp2606
a(S'@WinkelVeendam'
p2607
I2
tp2608
a(S'@penoactueel'
p2609
I2
tp2610
a(S'@RIFEMUSIC'
p2611
I2
tp2612
a(S'@EayKay'
p2613
I2
tp2614
a(S'@gulsahky'
p2615
I1
tp2616
a(S'@bart_schmidt'
p2617
I1
tp2618
a(S'@dinerkoyuncu'
p2619
I1
tp2620
a(S'@RoyalSegolene'
p2621
I1
tp2622
a(S'@MiyaBailey'
p2623
I1
tp2624
a(S'@_NGH_'
p2625
I1
tp2626
a(S'@flowersdothat'
p2627
I1
tp2628
a(S'@JaviReinaFans'
p2629
I1
tp2630
a(S'@MariusShow6'
p2631
I1
tp2632
a(S'@Dacia_NL'
p2633
I1
tp2634
a(S'@LouisEsmeijer'
p2635
I1
tp2636
a(S'@xRilaan'
p2637
I1
tp2638
a(S'@Logomediadordt'
p2639
I1
tp2640
a(S'@mbaeten'
p2641
I1
tp2642
a(S'@virginbrain'
p2643
I1
tp2644
a(S'@emmyrowan'
p2645
I1
tp2646
a(S'@xNynnex'
p2647
I1
tp2648
a(S'@JoyreauRacilyo'
p2649
I1
tp2650
a(S'@HofAmsterdam'
p2651
I1
tp2652
a(S'@geenstijl'
p2653
I1
tp2654
a(S'@FrankaJorge'
p2655
I1
tp2656
a(S'@balkannews'
p2657
I1
tp2658
a(S'@RodeKruisGouda'
p2659
I1
tp2660
a(S'@winelauwers'
p2661
I1
tp2662
a(S'@_Sophiekiss'
p2663
I1
tp2664
a(S'@gerbentekiefte'
p2665
I1
tp2666
a(S'@MStandaart'
p2667
I1
tp2668
a(S'@Jarii078'
p2669
I1
tp2670
a(S'@Dijkwel'
p2671
I1
tp2672
a(S'@iljaboelaars'
p2673
I1
tp2674
a(S'@celineLove4'
p2675
I1
tp2676
a(S'@keskinerhalil'
p2677
I1
tp2678
a(S'@xxKristiee'
p2679
I1
tp2680
a(S'@InnaOfficialx'
p2681
I1
tp2682
a(S'@buurtclub_info'
p2683
I1
tp2684
a(S'@Boek9'
p2685
I1
tp2686
a(S'@badgyalsds'
p2687
I1
tp2688
a(S'@ashkan0181'
p2689
I1
tp2690
a(S'@layphee'
p2691
I1
tp2692
a(S'@Alexsss_'
p2693
I1
tp2694
a(S'@PieterRietman'
p2695
I1
tp2696
a(S'@fransopzee'
p2697
I1
tp2698
a(S'@OfficialSQR_'
p2699
I1
tp2700
a(S'@angeliquerene'
p2701
I1
tp2702
a(S'@tubantia'
p2703
I1
tp2704
a(S'@huntingbieber'
p2705
I1
tp2706
a(S'@StupidManischa_'
p2707
I1
tp2708
a(S'@DiscotheekBash'
p2709
I1
tp2710
a(S'@ziekenhuis_nl'
p2711
I1
tp2712
a(S'@SanderFentsahm'
p2713
I1
tp2714
a(S'@XpressionMusic'
p2715
I1
tp2716
a(S'@HoleandHolland'
p2717
I1
tp2718
a(S'@mymissienyn'
p2719
I1
tp2720
a(S'@_poldo'
p2721
I1
tp2722
a(S'@danny_mol7'
p2723
I1
tp2724
a(S'@xLiiannne'
p2725
I1
tp2726
a(S'@eitwo'
p2727
I1
tp2728
a(S'@Liliankok'
p2729
I1
tp2730
a(S'@STUPIDAISHH_'
p2731
I1
tp2732
a(S'@xxfatimaatjexx'
p2733
I1
tp2734
a(S'@Jumboharlingen1'
p2735
I1
tp2736
a(S'@bllnstrk'
p2737
I1
tp2738
a(S'@richjamesmetro'
p2739
I1
tp2740
a(S'@FrederikeGoulmy'
p2741
I1
tp2742
a(S'@tiertwofooty'
p2743
I1
tp2744
a(S'@gomezjuan8'
p2745
I1
tp2746
a(S'@JeremyClarkson'
p2747
I1
tp2748
a(S'@_iloveAshley'
p2749
I1
tp2750
a(S'@bieb024'
p2751
I1
tp2752
a(S'@xTheyCallMeJade'
p2753
I1
tp2754
a(S'@RebeccaVermond'
p2755
I1
tp2756
a(S'@MikeyWells7'
p2757
I1
tp2758
a(S'@EF2nl'
p2759
I1
tp2760
a(S'@larsaz99'
p2761
I1
tp2762
a(S'@PouwStemerdink'
p2763
I1
tp2764
a(S'@BASEDBABY'
p2765
I1
tp2766
a(S'@MilanSandhovel'
p2767
I1
tp2768
a(S'@slamfmfans'
p2769
I1
tp2770
a(S'@Diligentia'
p2771
I1
tp2772
a(S'@AdamVuitton'
p2773
I1
tp2774
a(S'@stompwijkpuntnl'
p2775
I1
tp2776
a(S'@rivesdarcins'
p2777
I1
tp2778
a(S'@nancy_v_b'
p2779
I1
tp2780
a(S'@io_communicatie'
p2781
I1
tp2782
a(S'@iTH0MAS_'
p2783
I1
tp2784
a(S'@024events'
p2785
I1
tp2786
a(S'@igonieuws'
p2787
I1
tp2788
a(S'@hemmofa'
p2789
I1
tp2790
a(S'@uit_spanje'
p2791
I1
tp2792
a(S'@Blueberrier0341'
p2793
I1
tp2794
a(S'@Vastgoed_NL'
p2795
I1
tp2796
a(S'@KM__YOLO'
p2797
I1
tp2798
a(S'@washonelove'
p2799
I1
tp2800
a(S'@GamerGeeksNL'
p2801
I1
tp2802
a(S'@waPassart'
p2803
I1
tp2804
a(S'@BasvanIngen'
p2805
I1
tp2806
a(S'@JosjeSchaap__'
p2807
I1
tp2808
a(S'@_DeathPunch'
p2809
I1
tp2810
a(S'@Celebiugurr'
p2811
I1
tp2812
a(S'@Steffi_xx1'
p2813
I1
tp2814
a(S'@junderwood45'
p2815
I1
tp2816
a(S'@MaiteLaiseca'
p2817
I1
tp2818
a(S'@knientjn'
p2819
I1
tp2820
a(S'@nandavlb'
p2821
I1
tp2822
a(S'@SomeGirlsWant'
p2823
I1
tp2824
a(S'@Foaroan'
p2825
I1
tp2826
a(S'@KeesJD'
p2827
I1
tp2828
a(S'@YannickdeKeijzr'
p2829
I1
tp2830
a(S'@LoranoLM_'
p2831
I1
tp2832
a(S'@vamosdecrucero'
p2833
I1
tp2834
a(S'@TNS_NIPO'
p2835
I1
tp2836
a(S'@ChristaSwe'
p2837
I1
tp2838
a(S'@NatiBraavo'
p2839
I1
tp2840
a(S'@Gustafbanket'
p2841
I1
tp2842
a(S'@rezel'
p2843
I1
tp2844
a(S'@Pianerry'
p2845
I1
tp2846
a(S'@MylifeasVoetbal'
p2847
I1
tp2848
a(S'@Welcomecity'
p2849
I1
tp2850
a(S'@Suuussxox'
p2851
I1
tp2852
a(S'@VeeLeo'
p2853
I1
tp2854
a(S'@Ronald_fcg'
p2855
I1
tp2856
a(S'@badbloemendal'
p2857
I1
tp2858
a(S'@JaqelinBautista'
p2859
I1
tp2860
a(S'@Woutel'
p2861
I1
tp2862
a(S'@WOWItsJasmine'
p2863
I1
tp2864
a(S'@PeterKuhl'
p2865
I1
tp2866
a(S'@angelebakker'
p2867
I1
tp2868
a(S'@ofzayyn'
p2869
I1
tp2870
a(S'@kuzlieke'
p2871
I1
tp2872
a(S'@RogervLoon'
p2873
I1
tp2874
a(S'@missphilearth'
p2875
I1
tp2876
a(S'@LauraOost'
p2877
I1
tp2878
a(S'@Van_Dobben'
p2879
I1
tp2880
a(S'@Landerije'
p2881
I1
tp2882
a(S'@Hannet79'
p2883
I1
tp2884
a(S'@evatolkampx'
p2885
I1
tp2886
a(S'@kusiedianne'
p2887
I1
tp2888
a(S'@aaiBoek'
p2889
I1
tp2890
a(S'@ReintJanPotze'
p2891
I1
tp2892
a(S'@hollz_says'
p2893
I1
tp2894
a(S'@RegioBeveland'
p2895
I1
tp2896
a(S'@Dandypiel'
p2897
I1
tp2898
a(S'@Kos_'
p2899
I1
tp2900
a(S'@x_modemeiden'
p2901
I1
tp2902
a(S'@deruijter2'
p2903
I1
tp2904
a(S'@Samo024'
p2905
I1
tp2906
a(S'@Maisgirls1'
p2907
I1
tp2908
a(S'@GroningenNL'
p2909
I1
tp2910
a(S'@nettyroyal'
p2911
I1
tp2912
a(S'@iBieberAcoustic'
p2913
I1
tp2914
a(S'@EudiaHats'
p2915
I1
tp2916
a(S'@ZaansMuseum'
p2917
I1
tp2918
a(S'@JoepNL'
p2919
I1
tp2920
a(S'@Royal_Fashions'
p2921
I1
tp2922
a(S'@Ingepieterse'
p2923
I1
tp2924
a(S'@mirandagonzalon'
p2925
I1
tp2926
a(S'@ourbiebsworld'
p2927
I1
tp2928
a(S'@jobrodiaries'
p2929
I1
tp2930
a(S'@jadoreBrandy_'
p2931
I1
tp2932
a(S'@greggeertsma'
p2933
I1
tp2934
a(S'@shownieuws'
p2935
I1
tp2936
a(S'@Gierzwaluw'
p2937
I1
tp2938
a(S'@dennisrm15'
p2939
I1
tp2940
a(S'@Pickford07'
p2941
I1
tp2942
a(S'@TransferGer'
p2943
I1
tp2944
a(S'@boeklezers'
p2945
I1
tp2946
a(S'@Sawiniboetiek'
p2947
I1
tp2948
a(S'@Shangoo_'
p2949
I1
tp2950
a(S'@AynQistinaa'
p2951
I1
tp2952
a(S'@9GAGTweets'
p2953
I1
tp2954
a(S'@Cvdds'
p2955
I1
tp2956
a(S'@VerhageVolger'
p2957
I1
tp2958
a(S'@daniqueborn'
p2959
I1
tp2960
a(S'@BUNTE'
p2961
I1
tp2962
a(S'@PietZoomers'
p2963
I1
tp2964
a(S'@hdhaarlem'
p2965
I1
tp2966
a(S'@RomanoYaw_'
p2967
I1
tp2968
a(S'@TonHoving'
p2969
I1
tp2970
a(S'@MVShaniqua'
p2971
I1
tp2972
a(S'@onoffspices'
p2973
I1
tp2974
a(S'@itsdc__'
p2975
I1
tp2976
a(S'@KoenBecking'
p2977
I1
tp2978
a(S'@Mark_Goedhart'
p2979
I1
tp2980
a(S'@LaConde2'
p2981
I1
tp2982
a(S'@CLEMENTINOIENA'
p2983
I1
tp2984
a(S'@Viciusgirl_'
p2985
I1
tp2986
a(S'@mg_k13'
p2987
I1
tp2988
a(S'@ilmasaari93'
p2989
I1
tp2990
a(S'@ilseversnel'
p2991
I1
tp2992
a(S'@Martijnvanriel'
p2993
I1
tp2994
a(S'@Lisadorathea'
p2995
I1
tp2996
a(S'@explorerowing'
p2997
I1
tp2998
a(S'@Roosendaler'
p2999
I1
tp3000
a(S'@kleinjavasneek'
p3001
I1
tp3002
a(S'@fdevooo'
p3003
I1
tp3004
a(S'@Ismijnovgeldig'
p3005
I1
tp3006
a(S'@xtwittannn'
p3007
I1
tp3008
a(S'@BakRemmerswaal'
p3009
I1
tp3010
a(S'@wegenwacht4447'
p3011
I1
tp3012
a(S'@RadioNOP'
p3013
I1
tp3014
a(S'@gkhngokkaya'
p3015
I1
tp3016
a(S'@GoudaFM'
p3017
I1
tp3018
a(S'@iadoreamien_'
p3019
I1
tp3020
a(S'@jacqueline1107'
p3021
I1
tp3022
a(S'@BeckyRoze_'
p3023
I1
tp3024
a(S'@Virgil070'
p3025
I1
tp3026
a(S'@TomWGvdMeer'
p3027
I1
tp3028
a(S'@halil_karacali'
p3029
I1
tp3030
a(S'@AlbertVeerman'
p3031
I1
tp3032
a(S'@ITZZPbijING'
p3033
I1
tp3034
a(S'@_TCDesign_'
p3035
I1
tp3036
a(S'@ahdewolfsdam'
p3037
I1
tp3038
a(S'@ALMAx117'
p3039
I1
tp3040
a(S'@RiabaBoyer'
p3041
I1
tp3042
a(S'@cafetherits'
p3043
I1
tp3044
a(S'@XCHANIKAA'
p3045
I1
tp3046
a(S'@RidingAcademy'
p3047
I1
tp3048
a(S'@luuk'
p3049
I1
tp3050
a(S'@mijkesmiddag'
p3051
I1
tp3052
a(S'@ndGulliver'
p3053
I1
tp3054
a(S'@LoveKeighley'
p3055
I1
tp3056
a(S'@nateboomwitt'
p3057
I1
tp3058
a(S'@Internetprofeet'
p3059
I1
tp3060
a(S'@harryispretty'
p3061
I1
tp3062
a(S'@AHLeersum'
p3063
I1
tp3064
a(S'@TanerHacioglu99'
p3065
I1
tp3066
a(S'@iiLikeNailArt'
p3067
I1
tp3068
a(S'@Goodiebagshop'
p3069
I1
tp3070
a(S'@evenementen'
p3071
I1
tp3072
a(S'@marieketxx'
p3073
I1
tp3074
a(S'@AWESOMEBREEZY'
p3075
I1
tp3076
a(S'@Fresia_Oranje'
p3077
I1
tp3078
a(S'@EdwinWiek'
p3079
I1
tp3080
a(S'@HildebrandSara'
p3081
I1
tp3082
a(S'@StarrBwoyy_'
p3083
I1
tp3084
a(S'@vivirsinCFK_ya'
p3085
I1
tp3086
a(S'@Whiskytips'
p3087
I1
tp3088
a(S'@CroatiaESC'
p3089
I1
tp3090
a(S'@YoussefOas'
p3091
I1
tp3092
a(S'@SjorsTalsma'
p3093
I1
tp3094
a(S'@museazutphen'
p3095
I1
tp3096
a(S'@RaboPZ'
p3097
I1
tp3098
a(S'@UwFinseKota'
p3099
I1
tp3100
a(S'@JeffrieeEnzo'
p3101
I1
tp3102
a(S'@amberxvanxrooij'
p3103
I1
tp3104
a(S'@Corneel30'
p3105
I1
tp3106
a(S'@susivillina'
p3107
I1
tp3108
a(S'@ItZMe_Rt'
p3109
I1
tp3110
a(S'@hinderlijke'
p3111
I1
tp3112
a(S'@romyxkiss'
p3113
I1
tp3114
a(S'@MauriceKruk'
p3115
I1
tp3116
a(S'@SiccodeRee'
p3117
I1
tp3118
a(S'@PayneDedicated'
p3119
I1
tp3120
a(S'@Killin_Tym3'
p3121
I1
tp3122
a(S'@SonyXperiaNL'
p3123
I1
tp3124
a(S'@DukeDumont'
p3125
I1
tp3126
a(S'@giraalavida'
p3127
I1
tp3128
a(S'@MohanShakti'
p3129
I1
tp3130
a(S'@JerraSparrow'
p3131
I1
tp3132
a(S'@PrinsessDarknes'
p3133
I1
tp3134
a(S'@allarrdo'
p3135
I1
tp3136
a(S'@NAagencia'
p3137
I1
tp3138
a(S'@Max_Koops'
p3139
I1
tp3140
a(S'@Damies'
p3141
I1
tp3142
a(S'@gonny'
p3143
I1
tp3144
a(S'@AshleyRedjo'
p3145
I1
tp3146
a(S'@wimvanbelzen'
p3147
I1
tp3148
a(S'@celestaax'
p3149
I1
tp3150
a(S'@fairculemborg'
p3151
I1
tp3152
a(S'@BySantaMarta'
p3153
I1
tp3154
a(S'@Naang31'
p3155
I1
tp3156
a(S'@YbeltjeBD'
p3157
I1
tp3158
a(S'@IndoGabriel'
p3159
I1
tp3160
a(S'@JesseSchlien'
p3161
I1
tp3162
a(S'@Amorsenice'
p3163
I1
tp3164
a(S'@Shay_YOG100'
p3165
I1
tp3166
a(S'@WytseVellinga'
p3167
I1
tp3168
a(S'@MaartenMuns'
p3169
I1
tp3170
a(S'@xRoxannn'
p3171
I1
tp3172
a(S'@PaatriSantos'
p3173
I1
tp3174
a(S'@frenchbeuhftb'
p3175
I1
tp3176
a(S'@RinsDiss'
p3177
I1
tp3178
a(S'@iMorenoo_'
p3179
I1
tp3180
a(S'@helena_is_here'
p3181
I1
tp3182
a(S'@Douuubs'
p3183
I1
tp3184
a(S'@Big_Steff'
p3185
I1
tp3186
a(S'@KENNN__'
p3187
I1
tp3188
a(S'@kdwald'
p3189
I1
tp3190
a(S'@YellowNL'
p3191
I1
tp3192
a(S'@FLatijnhouwers'
p3193
I1
tp3194
a(S'@_iloveHabiba'
p3195
I1
tp3196
a(S'@AtsevenOpdracht'
p3197
I1
tp3198
a(S'@30EUROLIVEband'
p3199
I1
tp3200
a(S'@KarweiHengelo'
p3201
I1
tp3202
a(S'@pimlemmers'
p3203
I1
tp3204
a(S'@laurenspouw'
p3205
I1
tp3206
a(S'@MarcBessems'
p3207
I1
tp3208
a(S'@KINGSLAND_RAI'
p3209
I1
tp3210
a(S'@_Roommx'
p3211
I1
tp3212
a(S'@OnlineFMorg'
p3213
I1
tp3214
a(S'@Steyn_PPD_010'
p3215
I1
tp3216
a(S'@_AmyFitzpatrick'
p3217
I1
tp3218
a(S'@coolallard'
p3219
I1
tp3220
a(S'@brokentv'
p3221
I1
tp3222
a(S'@ChantaldejonghX'
p3223
I1
tp3224
a(S'@Jeroennn97'
p3225
I1
tp3226
a(S'@RaboZWD'
p3227
I1
tp3228
a(S'@Seraugur'
p3229
I1
tp3230
a(S'@delekstreek'
p3231
I1
tp3232
a(S'@xVansz'
p3233
I1
tp3234
a(S'@Intratuin0546'
p3235
I1
tp3236
a(S'@ArtisanalBeers'
p3237
I1
tp3238
a(S'@JWVaartjes'
p3239
I1
tp3240
a(S'@iiShootYou'
p3241
I1
tp3242
a(S'@bassie_vl'
p3243
I1
tp3244
a(S'@sterrenontour'
p3245
I1
tp3246
a(S'@ordevandedag'
p3247
I1
tp3248
a(S'@lormansBO'
p3249
I1
tp3250
a(S'@BenMurphyWardel'
p3251
I1
tp3252
a(S'@DrAQ_Khan'
p3253
I1
tp3254
a(S'@Jennekepenneke'
p3255
I1
tp3256
a(S'@CSPiet'
p3257
I1
tp3258
a(S'@BhsaHulontalo'
p3259
I1
tp3260
a(S'@JasmineAicha'
p3261
I1
tp3262
a(S'@Ariboss'
p3263
I1
tp3264
a(S'@paarden'
p3265
I1
tp3266
a(S'@smartensexy'
p3267
I1
tp3268
a(S'@MarceloKusik'
p3269
I1
tp3270
a(S'@jjvpeperstraten'
p3271
I1
tp3272
a(S'@NaomiCJ'
p3273
I1
tp3274
a(S'@KROSpoorloos'
p3275
I1
tp3276
a(S'@wirsindspitze'
p3277
I1
tp3278
a(S'@Yourikaspers'
p3279
I1
tp3280
a(S'@0547Laura'
p3281
I1
tp3282
a(S'@sol_urroz'
p3283
I1
tp3284
a(S'@RonaldHuik'
p3285
I1
tp3286
a(S'@b_moderne'
p3287
I1
tp3288
a(S'@daniquekusx'
p3289
I1
tp3290
a(S'@DjRobsonFreitas'
p3291
I1
tp3292
a(S'@YnezLim'
p3293
I1
tp3294
a(S'@lidwieneik_boom'
p3295
I1
tp3296
a(S'@birdswalk'
p3297
I1
tp3298
a(S'@HarriKullas151'
p3299
I1
tp3300
a(S'@ilhamloukili_'
p3301
I1
tp3302
a(S'@JennaHorridge_x'
p3303
I1
tp3304
a(S'@oelnbret'
p3305
I1
tp3306
a(S'@bescherm_dieren'
p3307
I1
tp3308
a(S'@TooLateWatches'
p3309
I1
tp3310
a(S'@omroepvara'
p3311
I1
tp3312
a(S'@NataschaW'
p3313
I1
tp3314
a(S'@_illezt'
p3315
I1
tp3316
a(S'@Vrouwonline_nl'
p3317
I1
tp3318
a(S'@xMichelllllllle'
p3319
I1
tp3320
a(S'@HeleenJoosten'
p3321
I1
tp3322
a(S'@DcMoGAa'
p3323
I1
tp3324
a(S'@xxbertrice'
p3325
I1
tp3326
a(S'@NedDagbl'
p3327
I1
tp3328
a(S'@PEAKIT'
p3329
I1
tp3330
a(S'@Fasheelysh'
p3331
I1
tp3332
a(S'@Groep_Rensing'
p3333
I1
tp3334
a(S'@gekleurdefietsb'
p3335
I1
tp3336
a(S'@reetketel'
p3337
I1
tp3338
a(S'@eenmainiacwilt'
p3339
I1
tp3340
a(S'@Smile_Theo'
p3341
I1
tp3342
a(S'@dougie046'
p3343
I1
tp3344
a(S'@_Stevoo'
p3345
I1
tp3346
a(S'@_PlanetAlex'
p3347
I1
tp3348
a(S'@Isabelle0901'
p3349
I1
tp3350
a(S'@MeganNicole_NL'
p3351
I1
tp3352
a(S'@MICHAEL_ADELFT'
p3353
I1
tp3354
a(S'@leslielesshoes'
p3355
I1
tp3356
a(S'@floriswever'
p3357
I1
tp3358
a(S'@VrijPolTVN'
p3359
I1
tp3360
a(S'@xkus_christina'
p3361
I1
tp3362
a(S'@De_Geus'
p3363
I1
tp3364
a(S'@shekanarya'
p3365
I1
tp3366
a(S'@YvanTheSheep'
p3367
I1
tp3368
a(S'@Volvo_NL_PR'
p3369
I1
tp3370
a(S'@Marly77M'
p3371
I1
tp3372
a(S'@FransvanHoeken'
p3373
I1
tp3374
a(S'@prof_erival'
p3375
I1
tp3376
a(S'@BNR'
p3377
I1
tp3378
a(S'@HieMep'
p3379
I1
tp3380
a(S'@melanieannax'
p3381
I1
tp3382
a(S'@mehmetsenyuva'
p3383
I1
tp3384
a(S'@Evaoostmeijerx'
p3385
I1
tp3386
a(S'@ErikGlazenburg'
p3387
I1
tp3388
a(S'@sanshiine'
p3389
I1
tp3390
a(S'@Rituals'
p3391
I1
tp3392
a(S'@Mliss_x'
p3393
I1
tp3394
a(S'@_SmaN_'
p3395
I1
tp3396
a(S'@BoxmeerThomas'
p3397
I1
tp3398
a(S'@brookesayhi'
p3399
I1
tp3400
a(S'@KLM_UK'
p3401
I1
tp3402
a(S'@Antje_Kingma'
p3403
I1
tp3404
a(S'@r2thebeatz'
p3405
I1
tp3406
a(S'@AndyGlikman'
p3407
I1
tp3408
a(S'@marocaantje2011'
p3409
I1
tp3410
a(S'@ScottishFans'
p3411
I1
tp3412
a(S'@HoneyCcocaine_'
p3413
I1
tp3414
a(S'@CoryDonnan'
p3415
I1
tp3416
a(S'@tessaelise_kus'
p3417
I1
tp3418
a(S'@cor4office'
p3419
I1
tp3420
a(S'@sarinoah'
p3421
I1
tp3422
a(S'@TheWrightWingv2'
p3423
I1
tp3424
a(S'@SuzanneRTL'
p3425
I1
tp3426
a(S'@kellieeex'
p3427
I1
tp3428
a(S'@Golositasabine'
p3429
I1
tp3430
a(S'@StichtingGilat'
p3431
I1
tp3432
a(S'@Jeroenskiii'
p3433
I1
tp3434
a(S'@MarkRook'
p3435
I1
tp3436
a(S'@TranceR_RaveR'
p3437
I1
tp3438
a(S'@VriendKlei'
p3439
I1
tp3440
a(S'@QasbaAligarh'
p3441
I1
tp3442
a(S'@imalbertoalonso'
p3443
I1
tp3444
a(S'@fr1908_news'
p3445
I1
tp3446
a(S'@06HS_'
p3447
I1
tp3448
a(S'@voetbalinleiden'
p3449
I1
tp3450
a(S'@canmumcu1907'
p3451
I1
tp3452
a(S'@onzetaal'
p3453
I1
tp3454
a(S'@Wereld_nieuws'
p3455
I1
tp3456
a(S'@winkelmanna'
p3457
I1
tp3458
a(S'@_sssinem'
p3459
I1
tp3460
a(S'@bschaefflerc'
p3461
I1
tp3462
a(S'@DrvanderHoog'
p3463
I1
tp3464
a(S'@Pieter_Kos'
p3465
I1
tp3466
a(S'@IkSpeelHabbo'
p3467
I1
tp3468
a(S'@Oujdiiaatjee'
p3469
I1
tp3470
a(S'@JadeWissink'
p3471
I1
tp3472
a(S'@Erikjewk'
p3473
I1
tp3474
a(S'@HavenAmsterdam'
p3475
I1
tp3476
a(S'@fourpera'
p3477
I1
tp3478
a(S'@Roscovitsch'
p3479
I1
tp3480
a(S'@clarerishbeth'
p3481
I1
tp3482
a(S'@Leanderstolk'
p3483
I1
tp3484
a(S'@bieberrpagee'
p3485
I1
tp3486
a(S'@ZlodWizy'
p3487
I1
tp3488
a(S'@NonstopOscar'
p3489
I1
tp3490
a(S'@uit_haarlem'
p3491
I1
tp3492
a(S'@Robindekleer'
p3493
I1
tp3494
a(S'@kellyspijk'
p3495
I1
tp3496
a(S'@DisismiLingerie'
p3497
I1
tp3498
a(S'@Michiel_25'
p3499
I1
tp3500
a(S'@PaulSwaney'
p3501
I1
tp3502
a(S'@Eemskrant'
p3503
I1
tp3504
a(S'@lizalonkhuyzen'
p3505
I1
tp3506
a(S'@__Stranger_'
p3507
I1
tp3508
a(S'@ANNNIEKx'
p3509
I1
tp3510
a(S'@mhoburen'
p3511
I1
tp3512
a(S'@Jamie_Dawnxx'
p3513
I1
tp3514
a(S'@RooijRon'
p3515
I1
tp3516
a(S'@xelliss'
p3517
I1
tp3518
a(S'@djtlm'
p3519
I1
tp3520
a(S'@JuriaanRSN'
p3521
I1
tp3522
a(S'@bakkerijveendam'
p3523
I1
tp3524
a(S'@hernades1'
p3525
I1
tp3526
a(S'@TeddyPamela'
p3527
I1
tp3528
a(S'@StevePuttrich'
p3529
I1
tp3530
a(S'@evaxannemarijn'
p3531
I1
tp3532
a(S'@marvingierveld'
p3533
I1
tp3534
a(S'@mids106'
p3535
I1
tp3536
a(S'@Metro'
p3537
I1
tp3538
a(S'@UltimateFact'
p3539
I1
tp3540
a(S'@SprinkleByEden'
p3541
I1
tp3542
a(S'@renevangellekom'
p3543
I1
tp3544
a(S'@skabaas'
p3545
I1
tp3546
a(S'@jeffreykrist95'
p3547
I1
tp3548
a(S'@El_Afghano'
p3549
I1
tp3550
a(S'@prinsesgibby'
p3551
I1
tp3552
a(S'@iikleintje'
p3553
I1
tp3554
a(S'@xLeylaa'
p3555
I1
tp3556
a(S'@Optisportevents'
p3557
I1
tp3558
a(S'@CASeraus'
p3559
I1
tp3560
a(S'@xnadecheciurans'
p3561
I1
tp3562
a(S'@jakecun'
p3563
I1
tp3564
a(S'@Team_Alexis_J'
p3565
I1
tp3566
a(S'@DrDeeboy'
p3567
I1
tp3568
a(S'@Rob_Weerts'
p3569
I1
tp3570
a(S'@TalbotBons'
p3571
I1
tp3572
a(S'@Ny_xox'
p3573
I1
tp3574
a(S'@cathylovesdani'
p3575
I1
tp3576
a(S'@foknieuwsnl'
p3577
I1
tp3578
a(S'@M_avilez96'
p3579
I1
tp3580
a(S'@SavShenaylice'
p3581
I1
tp3582
a(S'@5aRocio'
p3583
I1
tp3584
a(S'@Teddiehoi'
p3585
I1
tp3586
a(S'@Googlearthpics'
p3587
I1
tp3588
a(S'@xdisailly'
p3589
I1
tp3590
a(S'@ubmjobs'
p3591
I1
tp3592
a(S'@pilitolomei'
p3593
I1
tp3594
a(S'@Britt_xxxxxx'
p3595
I1
tp3596
a(S'@renskex__'
p3597
I1
tp3598
a(S'@AkzoNobel'
p3599
I1
tp3600
a(S'@TechTronGroep'
p3601
I1
tp3602
a(S'@Gewonejongen'
p3603
I1
tp3604
a(S'@XOSaraa'
p3605
I1
tp3606
a(S'@AKohl'
p3607
I1
tp3608
a(S'@Richard_Florida'
p3609
I1
tp3610
a(S'@Nickymeesterx'
p3611
I1
tp3612
a(S'@HollaDaze'
p3613
I1
tp3614
a(S'@ElRegionalGoya'
p3615
I1
tp3616
a(S'@hiddebruins'
p3617
I1
tp3618
a(S'@BrittSfabriek'
p3619
I1
tp3620
a(S'@Koninginnedag1'
p3621
I1
tp3622
a(S'@forzawoerden'
p3623
I1
tp3624
a(S'@Elle_Belle78'
p3625
I1
tp3626
a(S'@USSailingTeam'
p3627
I1
tp3628
a(S'@ReggaeMusicBox'
p3629
I1
tp3630
a(S'@KeesenRuud'
p3631
I1
tp3632
a(S'@ThSchoenmakers'
p3633
I1
tp3634
a(S'@dennis_blew'
p3635
I1
tp3636
a(S'@saraahx__'
p3637
I1
tp3638
a(S'@AndrewvBoxtel'
p3639
I1
tp3640
a(S'@GemHaren'
p3641
I1
tp3642
a(S'@tbli'
p3643
I1
tp3644
a(S'@PickNigger'
p3645
I1
tp3646
a(S'@the_dti'
p3647
I1
tp3648
a(S'@RiccoHJD'
p3649
I1
tp3650
a(S'@Simone_1981'
p3651
I1
tp3652
a(S'@KirstyJoyce_'
p3653
I1
tp3654
a(S'@IrnaninaIrna'
p3655
I1
tp3656
a(S'@Scheepsbouw'
p3657
I1
tp3658
a(S'@eniskurtuluss'
p3659
I1
tp3660
a(S'@Faantje_'
p3661
I1
tp3662
a(S'@BellyBzwanger'
p3663
I1
tp3664
a(S'@BuRonaldo_'
p3665
I1
tp3666
a(S'@fadhilbm'
p3667
I1
tp3668
a(S'@MitchML_'
p3669
I1
tp3670
a(S'@conxypedretita'
p3671
I1
tp3672
a(S'@Danieldejongg'
p3673
I1
tp3674
a(S'@Coelenhage'
p3675
I1
tp3676
a(S'@kus_kimberley'
p3677
I1
tp3678
a(S'@indokidd__'
p3679
I1
tp3680
a(S'@Mitta_079'
p3681
I1
tp3682
a(S'@MucoFriends'
p3683
I1
tp3684
a(S'@boudyipad'
p3685
I1
tp3686
a(S'@Aquarius4422'
p3687
I1
tp3688
a(S'@Werkenbijachmea'
p3689
I1
tp3690
a(S'@ayeshabig'
p3691
I1
tp3692
a(S'@ssayenne'
p3693
I1
tp3694
a(S'@cbc_belmont'
p3695
I1
tp3696
a(S'@veerleberns'
p3697
I1
tp3698
a(S'@ptienkamp'
p3699
I1
tp3700
a(S'@kusjexJaimy'
p3701
I1
tp3702
a(S'@IHVUtrecht'
p3703
I1
tp3704
a(S'@Matiz80'
p3705
I1
tp3706
a(S'@CirocRozay_'
p3707
I1
tp3708
a(S'@Fatimahne'
p3709
I1
tp3710
a(S'@DutchNathalie'
p3711
I1
tp3712
a(S'@jumboeerbeek'
p3713
I1
tp3714
a(S'@sieril'
p3715
I1
tp3716
a(S'@Pietadema'
p3717
I1
tp3718
a(S'@PsikologID'
p3719
I1
tp3720
a(S'@digilis'
p3721
I1
tp3722
a(S'@Larsonisoss'
p3723
I1
tp3724
a(S'@nieuwwij'
p3725
I1
tp3726
a(S'@djmarkradford'
p3727
I1
tp3728
a(S'@richardbeekman'
p3729
I1
tp3730
a(S'@fernandocampix'
p3731
I1
tp3732
a(S'@volleyinfonl'
p3733
I1
tp3734
a(S'@ashwinAFCA'
p3735
I1
tp3736
a(S'@QualityPhysio'
p3737
I1
tp3738
a(S'@Der_Webmeister'
p3739
I1
tp3740
a(S'@YordivanLubeck'
p3741
I1
tp3742
a(S'@ChristaVdK'
p3743
I1
tp3744
a(S'@Jaspermasper'
p3745
I1
tp3746
a(S'@kusjedeniseee'
p3747
I1
tp3748
a(S'@XdeniseL'
p3749
I1
tp3750
a(S'@CDAValkenburg'
p3751
I1
tp3752
a(S'@SellitaSJ_'
p3753
I1
tp3754
a(S'@loisyasminw'
p3755
I1
tp3756
a(S'@DeHeiligeVader'
p3757
I1
tp3758
a(S'@KoningsSwagg'
p3759
I1
tp3760
a(S'@Agriboard'
p3761
I1
tp3762
a(S'@Hananee_'
p3763
I1
tp3764
a(S'@GezondLevenNL'
p3765
I1
tp3766
a(S'@FUCKitsJoeyy_'
p3767
I1
tp3768
a(S'@xmeikieex'
p3769
I1
tp3770
a(S'@RaboApeldoorn'
p3771
I1
tp3772
a(S'@nuttelozefeiten'
p3773
I1
tp3774
a(S'@evavalk'
p3775
I1
tp3776
a(S'@LeFtO'
p3777
I1
tp3778
a(S'@Katiewood0'
p3779
I1
tp3780
a(S'@writingberries'
p3781
I1
tp3782
a(S'@WorldOfBiieber_'
p3783
I1
tp3784
a(S'@glamorousgoodi1'
p3785
I1
tp3786
a(S'@copaamsterdam'
p3787
I1
tp3788
a(S'@Artiestenbond'
p3789
I1
tp3790
a(S'@Jayde_morrissey'
p3791
I1
tp3792
a(S'@Simeon_MK1'
p3793
I1
tp3794
a(S'@CVZSVD_'
p3795
I1
tp3796
a(S'@olafvdberg96'
p3797
I1
tp3798
a(S'@ShortyTS_'
p3799
I1
tp3800
a(S'@travelmediabe'
p3801
I1
tp3802
a(S'@Jasminee_Amarie'
p3803
I1
tp3804
a(S'@Teeeej93'
p3805
I1
tp3806
a(S'@coverbandnoah'
p3807
I1
tp3808
a(S'@MeleCrespo'
p3809
I1
tp3810
a(S'@Iamshuwenkaa_x'
p3811
I1
tp3812
a(S'@flyingterlik'
p3813
I1
tp3814
a(S'@DHNCentraal'
p3815
I1
tp3816
a(S'@vizumloos'
p3817
I1
tp3818
a(S'@Intratuin0342'
p3819
I1
tp3820
a(S'@JustCozziie'
p3821
I1
tp3822
a(S'@tekoopinleiden'
p3823
I1
tp3824
a(S'@apeldoornmeteo'
p3825
I1
tp3826
a(S'@IlariaSolari'
p3827
I1
tp3828
a(S'@brigitteonline'
p3829
I1
tp3830
a(S'@DonkergroenNL'
p3831
I1
tp3832
a(S'@ArnhemPlays'
p3833
I1
tp3834
a(S'@PurKratos'
p3835
I1
tp3836
a(S'@Daanlangkamp'
p3837
I1
tp3838
a(S'@LikeBrazilMusic'
p3839
I1
tp3840
a(S'@NUsport'
p3841
I1
tp3842
a(S'@DrSagheerMQM'
p3843
I1
tp3844
a(S'@AstrudWildschut'
p3845
I1
tp3846
a(S'@Jamal010_'
p3847
I1
tp3848
a(S'@JeroenAkkermans'
p3849
I1
tp3850
a(S'@irenechristien'
p3851
I1
tp3852
a(S'@DanilsonPF_'
p3853
I1
tp3854
a(S'@aboerrigter'
p3855
I1
tp3856
a(S'@marcodalmeijer'
p3857
I1
tp3858
a(S'@michaelsijbom'
p3859
I1
tp3860
a(S'@bartsikkema'
p3861
I1
tp3862
a(S'@What_Liam_Said'
p3863
I1
tp3864
a(S'@BredaInfo'
p3865
I1
tp3866
a(S'@henkvanderzwaan'
p3867
I1
tp3868
a(S'@BazzarFood'
p3869
I1
tp3870
a(S'@HermanKaiser'
p3871
I1
tp3872
a(S'@VDWVM'
p3873
I1
tp3874
a(S'@IamSoulid'
p3875
I1
tp3876
a(S'@DJCliveMills'
p3877
I1
tp3878
a(S'@keepmedreaming'
p3879
I1
tp3880
a(S'@grantmclure'
p3881
I1
tp3882
a(S'@powerofZiam'
p3883
I1
tp3884
a(S'@LedegangCommPR'
p3885
I1
tp3886
a(S'@haticeaktas1907'
p3887
I1
tp3888
a(S'@HErikFlink'
p3889
I1
tp3890
a(S'@diplo'
p3891
I1
tp3892
a(S'@Bright99'
p3893
I1
tp3894
a(S'@EinsteinBarbie'
p3895
I1
tp3896
a(S'@ekufal_newenlef'
p3897
I1
tp3898
a(S'@MarionBakker1'
p3899
I1
tp3900
a(S'@InplayPunter'
p3901
I1
tp3902
a(S'@Bel09091850'
p3903
I1
tp3904
a(S'@SusanStephanie_'
p3905
I1
tp3906
a(S'@FFF070'
p3907
I1
tp3908
a(S'@HarmonieVorden'
p3909
I1
tp3910
a(S'@JakobJava'
p3911
I1
tp3912
a(S'@annabelsuesan'
p3913
I1
tp3914
a(S'@JobHoogendoorn_'
p3915
I1
tp3916
a(S'@Vernieuwingbouw'
p3917
I1
tp3918
a(S'@arvankampen'
p3919
I1
tp3920
a(S'@Maggie_JL'
p3921
I1
tp3922
a(S'@Zorghoppen'
p3923
I1
tp3924
a(S'@Ca_FiveSentt'
p3925
I1
tp3926
a(S'@DiamondSoSexxi'
p3927
I1
tp3928
a(S'@Lievekeet'
p3929
I1
tp3930
a(S'@jacquessmits'
p3931
I1
tp3932
a(S'@Denkfiguren'
p3933
I1
tp3934
a(S'@DoggLunar'
p3935
I1
tp3936
a(S'@ZeelandNWS'
p3937
I1
tp3938
a(S'@lacii1907'
p3939
I1
tp3940
a(S'@karamustafahmet'
p3941
I1
tp3942
a(S'@iiAnass'
p3943
I1
tp3944
a(S'@lindadevr'
p3945
I1
tp3946
a(S'@Galerie_LA'
p3947
I1
tp3948
a(S'@OranjeBoven3421'
p3949
I1
tp3950
a(S'@Mr_iSercinioo'
p3951
I1
tp3952
a(S'@xEmilyy96'
p3953
I1
tp3954
a(S'@jelinktme_'
p3955
I1
tp3956
a(S'@JipMeijerinkk'
p3957
I1
tp3958
a(S'@mariekevmeurs'
p3959
I1
tp3960
a(S'@juani_brune'
p3961
I1
tp3962
a(S'@thekillers'
p3963
I1
tp3964
a(S'@XCheriseG'
p3965
I1
tp3966
a(S'@Okaay_'
p3967
I1
tp3968
a(S'@Heedopter'
p3969
I1
tp3970
a(S'@smitch_90'
p3971
I1
tp3972
a(S'@annevisje'
p3973
I1
tp3974
a(S'@CaroladenH'
p3975
I1
tp3976
a(S'@SpecialIceNu'
p3977
I1
tp3978
a(S'@milou_xd'
p3979
I1
tp3980
a(S'@kaleliyigitcan'
p3981
I1
tp3982
a(S'@EasyConference'
p3983
I1
tp3984
a(S'@Sodexterminator'
p3985
I1
tp3986
a(S'@kcjw33'
p3987
I1
tp3988
a(S'@casschuurman'
p3989
I1
tp3990
a(S'@CedricRichelot'
p3991
I1
tp3992
a(S'@TGworldNews'
p3993
I1
tp3994
a(S'@GeertTeis'
p3995
I1
tp3996
a(S'@vlindersijbuik'
p3997
I1
tp3998
a(S'@claudiaotten'
p3999
I1
tp4000
a(S'@yukokitamoto'
p4001
I1
tp4002
a(S'@xhabibe_'
p4003
I1
tp4004
a(S'@morethantulips'
p4005
I1
tp4006
a(S'@Culibon'
p4007
I1
tp4008
a(S'@LilSantos__'
p4009
I1
tp4010
a(S'@fennerandmurat'
p4011
I1
tp4012
a(S'@_mariekefreya'
p4013
I1
tp4014
a(S'@xjuliettttee'
p4015
I1
tp4016
a(S'@RJMEngelbertink'
p4017
I1
tp4018
a(S'@dariofopoeldijk'
p4019
I1
tp4020
a(S'@Daily_Star'
p4021
I1
tp4022
a(S'@steelmusic'
p4023
I1
tp4024
a(S'@DonaldDuckNL'
p4025
I1
tp4026
a(S'@Trans_and_Art'
p4027
I1
tp4028
a(S'@astridberens'
p4029
I1
tp4030
a(S'@HellomagStyle'
p4031
I1
tp4032
a(S'@OveralTeZien'
p4033
I1
tp4034
a(S'@KLEEDjeBETER'
p4035
I1
tp4036
a(S'@eijkb'
p4037
I1
tp4038
a(S'@NoordgouwHattem'
p4039
I1
tp4040
a(S'@timuchin10'
p4041
I1
tp4042
a(S'@London_Eats'
p4043
I1
tp4044
a(S'@agrimarkt'
p4045
I1
tp4046
a(S'@iJULIA__'
p4047
I1
tp4048
a(S'@LaneeshaSuniva_'
p4049
I1
tp4050
a(S'@STEEEZY_'
p4051
I1
tp4052
a(S'@Sophie_Pieters'
p4053
I1
tp4054
a(S'@Chiquenessx'
p4055
I1
tp4056
a(S'@TimesLIVE'
p4057
I1
tp4058
a(S'@VerifiedBadass'
p4059
I1
tp4060
a(S'@Scum_Katwijk'
p4061
I1
tp4062
a(S'@EPinNL'
p4063
I1
tp4064
a(S'@020actueel'
p4065
I1
tp4066
a(S'@creambuttergirl'
p4067
I1
tp4068
a(S'@xJoyyy'
p4069
I1
tp4070
a(S'@elsbethh82'
p4071
I1
tp4072
a(S'@Interswitch'
p4073
I1
tp4074
a(S'@Sensatea'
p4075
I1
tp4076
a(S'@Remobeats'
p4077
I1
tp4078
a(S'@AnibalLitvin'
p4079
I1
tp4080
a(S'@klerkxartagency'
p4081
I1
tp4082
a(S'@Elsevier'
p4083
I1
tp4084
a(S'@toinevp'
p4085
I1
tp4086
a(S'@PRouwet'
p4087
I1
tp4088
a(S'@agucasanova'
p4089
I1
tp4090
a(S'@OlavBasoski'
p4091
I1
tp4092
a(S'@DutchHoranArmy'
p4093
I1
tp4094
a(S'@kaasvlinder'
p4095
I1
tp4096
a(S'@Vangrail'
p4097
I1
tp4098
a(S'@coreeeeyw'
p4099
I1
tp4100
a(S'@iadorelena'
p4101
I1
tp4102
a(S'@YahooSG'
p4103
I1
tp4104
a(S'@RTalsjehetziet'
p4105
I1
tp4106
a(S'@Stadvacature'
p4107
I1
tp4108
a(S'@kvanbrempt'
p4109
I1
tp4110
a(S'@MiniMocrox'
p4111
I1
tp4112
a(S'@shavvvella'
p4113
I1
tp4114
a(S'@Qsuzannee'
p4115
I1
tp4116
a(S'@luthfinurudin_'
p4117
I1
tp4118
a(S'@mcwindkracht'
p4119
I1
tp4120
a(S'@hkhnl'
p4121
I1
tp4122
a(S'@FlevolandNieuws'
p4123
I1
tp4124
a(S'@starmans1989'
p4125
I1
tp4126
a(S'@SalpieDawood'
p4127
I1
tp4128
a(S'@PCBOMeppel'
p4129
I1
tp4130
a(S'@maaaaandyx'
p4131
I1
tp4132
a(S'@kblykrkas'
p4133
I1
tp4134
a(S'@WerktijdZorg'
p4135
I1
tp4136
a(S'@deveendammer'
p4137
I1
tp4138
a(S'@MakuMadness'
p4139
I1
tp4140
a(S'@MetinJ_'
p4141
I1
tp4142
a(S'@YSLOVER_'
p4143
I1
tp4144
a(S'@o2mc'
p4145
I1
tp4146
a(S'@_weareallunique'
p4147
I1
tp4148
a(S'@Sabrineea_'
p4149
I1
tp4150
a(S'@KevinAchtien'
p4151
I1
tp4152
a(S'@serapsrpserap'
p4153
I1
tp4154
a(S'@iqrah070'
p4155
I1
tp4156
a(S'@xpression'
p4157
I1
tp4158
a(S'@football_oranje'
p4159
I1
tp4160
a(S'@iiSuze'
p4161
I1
tp4162
a(S'@animatieblog'
p4163
I1
tp4164
a(S'@xCeydaa50'
p4165
I1
tp4166
a(S'@Mnzo'
p4167
I1
tp4168
a(S'@Bollebof'
p4169
I1
tp4170
a(S'@Spijtenburgjobs'
p4171
I1
tp4172
a(S'@RF2706'
p4173
I1
tp4174
a(S'@Livelifenowexpt'
p4175
I1
tp4176
a(S'@OTPgroningen'
p4177
I1
tp4178
a(S'@mywordss_'
p4179
I1
tp4180
a(S'@redhongyi'
p4181
I1
tp4182
a(S'@architectuurES'
p4183
I1
tp4184
a(S'@KepinnKepann'
p4185
I1
tp4186
a(S'@djfevents'
p4187
I1
tp4188
a(S'@glptweets'
p4189
I1
tp4190
a(S'@GraydonNL'
p4191
I1
tp4192
a(S'@laszlo97'
p4193
I1
tp4194
a(S'@xanoukhemel'
p4195
I1
tp4196
a(S'@topolinafashion'
p4197
I1
tp4198
a(S'@YoungBoykie'
p4199
I1
tp4200
a(S'@WimBrugge'
p4201
I1
tp4202
a(S'@akdinfo'
p4203
I1
tp4204
a(S'@JoostdeRijcke98'
p4205
I1
tp4206
a(S'@kilicdarogluk'
p4207
I1
tp4208
a(S'@Houtwereld'
p4209
I1
tp4210
a(S'@andymiah'
p4211
I1
tp4212
a(S'@aopdam'
p4213
I1
tp4214
a(S'@_Kirsten__'
p4215
I1
tp4216
a(S'@Romano_075'
p4217
I1
tp4218
a(S'@LiiNSx_'
p4219
I1
tp4220
a(S'@Hakarrrrr'
p4221
I1
tp4222
a(S'@esmebetul_'
p4223
I1
tp4224
a(S'@Generali_NL'
p4225
I1
tp4226
a(S'@KP4Radio'
p4227
I1
tp4228
a(S'@TVSchijndel'
p4229
I1
tp4230
a(S'@KoenNYH'
p4231
I1
tp4232
a(S'@RetailNews_NL'
p4233
I1
tp4234
a(S'@_ilseeeee'
p4235
I1
tp4236
a(S'@PrestonPalace'
p4237
I1
tp4238
a(S'@roelandkimman'
p4239
I1
tp4240
a(S'@ohmydian'
p4241
I1
tp4242
a(S'@KissesIvn'
p4243
I1
tp4244
a(S'@a_saint_quentin'
p4245
I1
tp4246
a(S'@STAYD0PE_'
p4247
I1
tp4248
a(S'@J_v_Baardwijk'
p4249
I1
tp4250
a(S'@canvastv'
p4251
I1
tp4252
a(S'@TheSandEvents'
p4253
I1
tp4254
a(S'@rock_n_roots'
p4255
I1
tp4256
a(S'@PowerGeorgina_'
p4257
I1
tp4258
a(S'@Titus_live'
p4259
I1
tp4260
a(S'@gotsonpierre'
p4261
I1
tp4262
a(S'@Politiestudent'
p4263
I1
tp4264
a(S'@PieterHog'
p4265
I1
tp4266
a(S'@ChRiSTiuit_'
p4267
I1
tp4268
a(S'@NetherlandsEdu'
p4269
I1
tp4270
a(S'@ferialibro'
p4271
I1
tp4272
a(S'@RorySmithers'
p4273
I1
tp4274
a(S'@NOEEMII_x'
p4275
I1
tp4276
a(S'@ToraYeshua'
p4277
I1
tp4278
a(S'@Goederaad'
p4279
I1
tp4280
a(S'@mikoflohr'
p4281
I1
tp4282
a(S'@isilekin'
p4283
I1
tp4284
a(S'@vergunst'
p4285
I1
tp4286
a(S'@lovesannaxjanna'
p4287
I1
tp4288
a(S'@iMindlessBeast'
p4289
I1
tp4290
a(S'@MiracleMyrthe'
p4291
I1
tp4292
a(S'@africaarguments'
p4293
I1
tp4294
a(S'@Zenderstreek2'
p4295
I1
tp4296
a(S'@spreeksteen'
p4297
I1
tp4298
a(S'@anabelvazquez'
p4299
I1
tp4300
a(S'@IGCM_'
p4301
I1
tp4302
a(S'@uhcakip'
p4303
I1
tp4304
a(S'@NHDKennemerland'
p4305
I1
tp4306
a(S'@xssabrina'
p4307
I1
tp4308
a(S'@Eric_agb'
p4309
I1
tp4310
a(S'@hcmaroons'
p4311
I1
tp4312
a(S'@wormerveer1'
p4313
I1
tp4314
a(S'@ozlemgurkann_'
p4315
I1
tp4316
a(S'@rpreeve'
p4317
I1
tp4318
a(S'@elysandraQ'
p4319
I1
tp4320
a(S'@jehmorais_'
p4321
I1
tp4322
a(S'@LandLopers'
p4323
I1
tp4324
a(S'@Deli2go_NL'
p4325
I1
tp4326
a(S'@NietRickBroers'
p4327
I1
tp4328
a(S'@dedars'
p4329
I1
tp4330
a(S'@H_Rosendal'
p4331
I1
tp4332
a(S'@Lil_Quotes_book'
p4333
I1
tp4334
a(S'@OWC_Oldenzaal'
p4335
I1
tp4336
a(S'@haarlemmer_meer'
p4337
I1
tp4338
a(S'@xlittleMandyy'
p4339
I1
tp4340
a(S'@Veckooo'
p4341
I1
tp4342
a(S'@lbrynleyjones'
p4343
I1
tp4344
a(S'@ANWBverkeer'
p4345
I1
tp4346
a(S'@hannamarined'
p4347
I1
tp4348
a(S'@ernem'
p4349
I1
tp4350
a(S'@JimVorwald'
p4351
I1
tp4352
a(S'@LarenGelderland'
p4353
I1
tp4354
a(S'@HuisvanEuropa'
p4355
I1
tp4356
a(S'@vandelftdetic'
p4357
I1
tp4358
a(S'@milorietvelt'
p4359
I1
tp4360
a(S'@MathiasMitchell'
p4361
I1
tp4362
a(S'@djedreizen'
p4363
I1
tp4364
a(S'@ClubTheLevel'
p4365
I1
tp4366
a(S'@kleine_beugels'
p4367
I1
tp4368
a(S'@Jurreu'
p4369
I1
tp4370
a(S'@bozenomgeving'
p4371
I1
tp4372
a(S'@hoiikbenruuby'
p4373
I1
tp4374
a(S'@BGNtweet'
p4375
I1
tp4376
a(S'@AmsterdamEnO'
p4377
I1
tp4378
a(S'@TrigionNL'
p4379
I1
tp4380
a(S'@Crypsis'
p4381
I1
tp4382
a(S'@tess97x'
p4383
I1
tp4384
a(S'@ilovehss'
p4385
I1
tp4386
a(S'@Florilympha'
p4387
I1
tp4388
a(S'@JERSEY_eL'
p4389
I1
tp4390
a(S'@winiarisme'
p4391
I1
tp4392
a(S'@donnaxderee'
p4393
I1
tp4394
a(S'@IlhamAlvin_'
p4395
I1
tp4396
a(S'@Feneristcom'
p4397
I1
tp4398
a(S'@MayBrittMobach'
p4399
I1
tp4400
a(S'@SWAG_BIEBER1999'
p4401
I1
tp4402
a(S'@MichielRusch'
p4403
I1
tp4404
a(S'@PablitoZumosol'
p4405
I1
tp4406
a(S'@PrinceB2000'
p4407
I1
tp4408
a(S'@rfrijters'
p4409
I1
tp4410
a(S'@SANNIIEEx'
p4411
I1
tp4412
a(S'@DutchFootbalPro'
p4413
I1
tp4414
a(S'@hussam5353'
p4415
I1
tp4416
a(S'@2000andone'
p4417
I1
tp4418
a(S'@_itsannex'
p4419
I1
tp4420
a(S'@Tim_Nieburg'
p4421
I1
tp4422
a(S'@XROZEMARIJN__'
p4423
I1
tp4424
a(S'@promoveenendaal'
p4425
I1
tp4426
a(S'@STEPHHKUSS'
p4427
I1
tp4428
a(S'@donghae970309'
p4429
I1
tp4430
a(S'@promtomatoes'
p4431
I1
tp4432
a(S'@Mtb045'
p4433
I1
tp4434
a(S'@Kalkdijkfysio'
p4435
I1
tp4436
a(S'@AniMat505'
p4437
I1
tp4438
a(S'@BreizhAmbassade'
p4439
I1
tp4440
a(S'@evie4kids'
p4441
I1
tp4442
a(S'@MChiquillaa'
p4443
I1
tp4444
a(S'@DJLittledutch'
p4445
I1
tp4446
a(S'@Erikku_T'
p4447
I1
tp4448
a(S'@Wizza27'
p4449
I1
tp4450
a(S'@KhandBapa'
p4451
I1
tp4452
a(S'@JeffreyPieters'
p4453
I1
tp4454
a(S'@johnsmit87'
p4455
I1
tp4456
a(S'@Ooteoote'
p4457
I1
tp4458
a(S'@1DstreetteamNL'
p4459
I1
tp4460
a(S'@provgelderland'
p4461
I1
tp4462
a(S'@CanyonTech'
p4463
I1
tp4464
a(S'@tjunyboy'
p4465
I1
tp4466
a(S'@allfornature'
p4467
I1
tp4468
a(S'@mudurvekili'
p4469
I1
tp4470
a(S'@ericsabels'
p4471
I1
tp4472
a(S'@MaNU3L010'
p4473
I1
tp4474
a(S'@dserphos'
p4475
I1
tp4476
a(S'@Deskbookers'
p4477
I1
tp4478
a(S'@CafeMootz'
p4479
I1
tp4480
a(S'@gijsrademaker'
p4481
I1
tp4482
a(S'@Jeciilene'
p4483
I1
tp4484
a(S'@tieto_discoglam'
p4485
I1
tp4486
a(S'@acelyavcii'
p4487
I1
tp4488
a(S'@TopEredivisie'
p4489
I1
tp4490
a(S'@MyNameIsJerra'
p4491
I1
tp4492
a(S'@gwndiecabo'
p4493
I1
tp4494
a(S'@Chris_1791'
p4495
I1
tp4496
a(S'@Juanitobrahh'
p4497
I1
tp4498
a(S'@SarahPalinLinks'
p4499
I1
tp4500
a(S'@FlevolandWeer'
p4501
I1
tp4502
a(S'@Ponckster'
p4503
I1
tp4504
a(S'@roderikbouwman'
p4505
I1
tp4506
a(S'@susanhalluk'
p4507
I1
tp4508
a(S'@GOYESCARONDA'
p4509
I1
tp4510
a(S'@ERBUNDY11'
p4511
I1
tp4512
a(S'@planthunting'
p4513
I1
tp4514
a(S'@linda_mertens'
p4515
I1
tp4516
a(S'@espectador810'
p4517
I1
tp4518
a(S'@CodyConn94'
p4519
I1
tp4520
a(S'@VacaturesDelfzi'
p4521
I1
tp4522
a(S'@janineelmas'
p4523
I1
tp4524
a(S'@Drieterijebuul'
p4525
I1
tp4526
a(S'@Hannahvandepolx'
p4527
I1
tp4528
a(S'@Ouissal__'
p4529
I1
tp4530
a(S'@DenzelDenneboom'
p4531
I1
tp4532
a(S'@romeesuijs'
p4533
I1
tp4534
a(S'@v0s'
p4535
I1
tp4536
a(S'@Sannedejong_'
p4537
I1
tp4538
a(S'@admitnothing_'
p4539
I1
tp4540
a(S'@MoEfDaddy'
p4541
I1
tp4542
a(S'@Lisannoe'
p4543
I1
tp4544
a(S'@SUDA_tweets'
p4545
I1
tp4546
a(S'@Sauna_Putten'
p4547
I1
tp4548
a(S'@anniekakkerman'
p4549
I1
tp4550
a(S'@TinekevNimwegen'
p4551
I1
tp4552
a(S'@Erewinator'
p4553
I1
tp4554
a(S'@tikieterug'
p4555
I1
tp4556
a(S'@lionspilt'
p4557
I1
tp4558
a(S'@RegioFMRadio'
p4559
I1
tp4560
a(S'@Marelko'
p4561
I1
tp4562
a(S'@_Daanx'
p4563
I1
tp4564
a(S'@MinVWS'
p4565
I1
tp4566
a(S'@_AwsomeMIGUEL'
p4567
I1
tp4568
a(S'@Tessmilne'
p4569
I1
tp4570
a(S'@GranfTaylorr_'
p4571
I1
tp4572
a(S'@dagroosendaal'
p4573
I1
tp4574
a(S'@lesnussa_'
p4575
I1
tp4576
a(S'@SEKSRANDOM'
p4577
I1
tp4578
a(S'@Staalmarkt036'
p4579
I1
tp4580
a(S'@_Chris_Vo'
p4581
I1
tp4582
a(S'@Katja_Oosterbos'
p4583
I1
tp4584
a(S'@meppel_actief'
p4585
I1
tp4586
a(S'@namecalledyoyo'
p4587
I1
tp4588
a(S'@Heineken_NL'
p4589
I1
tp4590
a(S'@ryanmarciano'
p4591
I1
tp4592
a(S'@NysSofie'
p4593
I1
tp4594
a(S'@xsanneandela'
p4595
I1
tp4596
a(S'@DeTassenkoning'
p4597
I1
tp4598
a(S'@Drizzy_khaled'
p4599
I1
tp4600
a(S'@TweetyFener'
p4601
I1
tp4602
a(S'@Megan_Koekje'
p4603
I1
tp4604
a(S'@steenderens'
p4605
I1
tp4606
a(S'@Mazza3603'
p4607
I1
tp4608
a(S'@iLoveFeyenoord'
p4609
I1
tp4610
a(S'@ikgaeropuit'
p4611
I1
tp4612
a(S'@LammeFrans'
p4613
I1
tp4614
a(S'@NLDar'
p4615
I1
tp4616
a(S'@LoveCitraAulia'
p4617
I1
tp4618
a(S'@JordyDCrew'
p4619
I1
tp4620
a(S'@wasteofcum'
p4621
I1
tp4622
a(S'@Worldofchocolat'
p4623
I1
tp4624
a(S'@ZinoBabyy'
p4625
I1
tp4626
a(S'@ahkoornneef'
p4627
I1
tp4628
a(S'@MarcArdon'
p4629
I1
tp4630
a(S'@StreetlifeInt'
p4631
I1
tp4632
a(S'@nvander86'
p4633
I1
tp4634
a(S'@NielsMoelard'
p4635
I1
tp4636
a(S'@gemhouten'
p4637
I1
tp4638
a(S'@NS_online2'
p4639
I1
tp4640
a(S'@thatisjustdemi'
p4641
I1
tp4642
a(S'@haley_morg15'
p4643
I1
tp4644
a(S'@lurga23'
p4645
I1
tp4646
a(S'@amine163'
p4647
I1
tp4648
a(S'@GOstichting'
p4649
I1
tp4650
a(S'@IAm2illBG'
p4651
I1
tp4652
a(S'@Sude_Arkan'
p4653
I1
tp4654
a(S'@earthpix_'
p4655
I1
tp4656
a(S'@MECSS2013'
p4657
I1
tp4658
a(S'@ericdijkstra'
p4659
I1
tp4660
a(S'@iWILLCARE_'
p4661
I1
tp4662
a(S'@Mariliafortalez'
p4663
I1
tp4664
a(S'@UgurSeenn'
p4665
I1
tp4666
a(S'@yelissav'
p4667
I1
tp4668
a(S'@Humberbeat'
p4669
I1
tp4670
a(S'@kailycaressa'
p4671
I1
tp4672
a(S'@B_Visschedijk'
p4673
I1
tp4674
a(S'@sahingeckil'
p4675
I1
tp4676
a(S'@soukainaB_'
p4677
I1
tp4678
a(S'@mrkoolzaad'
p4679
I1
tp4680
a(S'@KemnaCasting'
p4681
I1
tp4682
a(S'@mvdeursenn'
p4683
I1
tp4684
a(S'@L_Kolen'
p4685
I1
tp4686
a(S'@NoraYasmine_'
p4687
I1
tp4688
a(S'@DeKievitBerkel'
p4689
I1
tp4690
a(S'@PetAddiction'
p4691
I1
tp4692
a(S'@CLEVERXYX'
p4693
I1
tp4694
a(S'@SabineVdputte'
p4695
I1
tp4696
a(S'@nieuws_020'
p4697
I1
tp4698
a(S'@e_niort'
p4699
I1
tp4700
a(S'@DannyDelgadoNL'
p4701
I1
tp4702
a(S'@MrtScml'
p4703
I1
tp4704
a(S'@sebstyle'
p4705
I1
tp4706
a(S'@TheBestRecords'
p4707
I1
tp4708
a(S'@xxCheyenne__'
p4709
I1
tp4710
a(S'@Gajanne'
p4711
I1
tp4712
a(S'@saarvink_'
p4713
I1
tp4714
a(S'@ROFNijmegen'
p4715
I1
tp4716
a(S'@anne1948'
p4717
I1
tp4718
a(S'@vdlindeloof'
p4719
I1
tp4720
a(S'@MuzoChe'
p4721
I1
tp4722
a(S'@NRCafe'
p4723
I1
tp4724
a(S'@marikiiya1'
p4725
I1
tp4726
a(S'@RickVerhoeven94'
p4727
I1
tp4728
a(S'@ZihniOzdil'
p4729
I1
tp4730
a(S'@Kerknieuws'
p4731
I1
tp4732
a(S'@Donna__xx'
p4733
I1
tp4734
a(S'@HibouLecteur'
p4735
I1
tp4736
a(S'@katiethomson_'
p4737
I1
tp4738
a(S'@GemmaJonkers'
p4739
I1
tp4740
a(S'@Havenjoure'
p4741
I1
tp4742
a(S'@eulenschwester'
p4743
I1
tp4744
a(S'@YvoVasDias'
p4745
I1
tp4746
a(S'@LMeegdes'
p4747
I1
tp4748
a(S'@KroeBoek'
p4749
I1
tp4750
a(S'@swagswagonyouxx'
p4751
I1
tp4752
a(S'@MaryRivera95'
p4753
I1
tp4754
a(S'@RaboKwaard'
p4755
I1
tp4756
a(S'@IAMBABYYY'
p4757
I1
tp4758
a(S'@jgvanberlo'
p4759
I1
tp4760
a(S'@bvn_tv'
p4761
I1
tp4762
a(S'@BaaszD'
p4763
I1
tp4764
a(S'@RDD_'
p4765
I1
tp4766
a(S'@BrianCHouston'
p4767
I1
tp4768
a(S'@ROBIINAFCA'
p4769
I1
tp4770
a(S'@piaayaya'
p4771
I1
tp4772
a(S'@MercureAdamCity'
p4773
I1
tp4774
a(S'@H0iIKBENEVA_'
p4775
I1
tp4776
a(S'@DefCivilSalta'
p4777
I1
tp4778
a(S'@LudvieMailuhu'
p4779
I1
tp4780
a(S'@SetiaHatiNL'
p4781
I1
tp4782
a(S'@Miriamhh'
p4783
I1
tp4784
a(S'@TamaraRoosja'
p4785
I1
tp4786
a(S'@Chayenneduif'
p4787
I1
tp4788
a(S'@denhaneker'
p4789
I1
tp4790
a(S'@Erol_Ulu'
p4791
I1
tp4792
a(S'@FreeDem_Music'
p4793
I1
tp4794
a(S'@Possofff'
p4795
I1
tp4796
a(S'@GroeneRuimte'
p4797
I1
tp4798
a(S'@ManonWillemsenx'
p4799
I1
tp4800
a(S'@nondasz'
p4801
I1
tp4802
a(S'@1We'
p4803
I1
tp4804
a(S'@beleefbreda'
p4805
I1
tp4806
a(S'@CayaEmma'
p4807
I1
tp4808
a(S'@GilianBeltman'
p4809
I1
tp4810
a(S'@Jensjebergman'
p4811
I1
tp4812
a(S'@SuzannevTriest'
p4813
I1
tp4814
a(S'@larsvdwerf'
p4815
I1
tp4816
a(S'@wuv'
p4817
I1
tp4818
a(S'@DanielRietveld'
p4819
I1
tp4820
a(S'@Zoenzoenzoen'
p4821
I1
tp4822
a(S'@Anneliefs'
p4823
I1
tp4824
a(S'@DavidBolomey'
p4825
I1
tp4826
a(S'@TweetTactus'
p4827
I1
tp4828
a(S'@James_kibZ'
p4829
I1
tp4830
a(S'@zaisha97'
p4831
I1
tp4832
a(S'@rubensenneker'
p4833
I1
tp4834
a(S'@Tessakusjex_'
p4835
I1
tp4836
a(S'@bol_com_beauty'
p4837
I1
tp4838
a(S'@lucas_boersma'
p4839
I1
tp4840
a(S'@BramVijver'
p4841
I1
tp4842
a(S'@Laskatweet'
p4843
I1
tp4844
a(S'@brianverlaan'
p4845
I1
tp4846
a(S'@OhanjanAni'
p4847
I1
tp4848
a(S'@Gloeilamperuit'
p4849
I1
tp4850
a(S'@cmwsale'
p4851
I1
tp4852
a(S'@ericadomingosss'
p4853
I1
tp4854
a(S'@Keess1908'
p4855
I1
tp4856
a(S'@marionkalis'
p4857
I1
tp4858
a(S'@Revista_PRONTO'
p4859
I1
tp4860
a(S'@kingalca'
p4861
I1
tp4862
a(S'@sheahorse'
p4863
I1
tp4864
a(S'@LexGaarthuis'
p4865
I1
tp4866
a(S'@ICT_Amsterdam'
p4867
I1
tp4868
a(S'@TheDutcheese'
p4869
I1
tp4870
a(S'@melaharianja'
p4871
I1
tp4872
a(S'@dafit'
p4873
I1
tp4874
a(S'@Antilliaanse'
p4875
I1
tp4876
a(S'@hetkanWel'
p4877
I1
tp4878
a(S'@bopieterson'
p4879
I1
tp4880
a(S'@nieuwerevu'
p4881
I1
tp4882
a(S'@KoffiePrins'
p4883
I1
tp4884
a(S'@NSS1995'
p4885
I1
tp4886
a(S'@alyssarosenau'
p4887
I1
tp4888
a(S'@Claudia_vanGorp'
p4889
I1
tp4890
a(S'@BabeltotsLtd'
p4891
I1
tp4892
a(S'@_OzelleKyzoe'
p4893
I1
tp4894
a(S'@hollandinn'
p4895
I1
tp4896
a(S'@floresco'
p4897
I1
tp4898
a(S'@boscampingnorg'
p4899
I1
tp4900
a(S'@heraut_online'
p4901
I1
tp4902
a(S'@hugovdwedden'
p4903
I1
tp4904
a(S'@vdl87'
p4905
I1
tp4906
a(S'@CelineNathalie'
p4907
I1
tp4908
a(S'@Aj_Awad'
p4909
I1
tp4910
a(S'@chun070jwz'
p4911
I1
tp4912
a(S'@_Rocknrollerr'
p4913
I1
tp4914
a(S'@vaaton'
p4915
I1
tp4916
a(S'@I_MJEFF'
p4917
I1
tp4918
a(S'@MrveBora'
p4919
I1
tp4920
a(S'@LucasDegen'
p4921
I1
tp4922
a(S'@ReedCat5000'
p4923
I1
tp4924
a(S'@parcplaza'
p4925
I1
tp4926
a(S'@Jantkaboem'
p4927
I1
tp4928
a(S'@SOCBleiswijk'
p4929
I1
tp4930
a(S'@xCHL0EEE'
p4931
I1
tp4932
a(S'@uxyacm'
p4933
I1
tp4934
a(S'@NCRV'
p4935
I1
tp4936
a(S'@mervekx_'
p4937
I1
tp4938
a(S'@Revelsoffice'
p4939
I1
tp4940
a(S'@OVNoordwijk'
p4941
I1
tp4942
a(S'@CBC_Belmont'
p4943
I1
tp4944
a(S'@SmikkelMikkel'
p4945
I1
tp4946
a(S'@debbyzulfaa'
p4947
I1
tp4948
a(S'@ismail_gemi'
p4949
I1
tp4950
a(S'@OFFICIALTEAMYS'
p4951
I1
tp4952
a(S'@AntonStapelkamp'
p4953
I1
tp4954
a(S'@jangroentegels'
p4955
I1
tp4956
a(S'@AlyonaFeriabova'
p4957
I1
tp4958
a(S'@surikelsx'
p4959
I1
tp4960
a(S'@biizukralen'
p4961
I1
tp4962
a(S'@MySocialData'
p4963
I1
tp4964
a(S'@DBStephanie'
p4965
I1
tp4966
a(S'@leviwitbaard'
p4967
I1
tp4968
a(S'@030Caro'
p4969
I1
tp4970
a(S'@SHINeeSalahGaul'
p4971
I1
tp4972
a(S'@JulienHut'
p4973
I1
tp4974
a(S'@ArjanNederlof'
p4975
I1
tp4976
a(S'@DenimsOriginals'
p4977
I1
tp4978
a(S'@inttenss'
p4979
I1
tp4980
a(S'@het_postkantoor'
p4981
I1
tp4982
a(S'@joslutz'
p4983
I1
tp4984
a(S'@missmarjoleinx'
p4985
I1
tp4986
a(S'@AceofClubs2'
p4987
I1
tp4988
a(S'@xSiidneeey_'
p4989
I1
tp4990
a(S'@mijnnaamisjay'
p4991
I1
tp4992
a(S'@JopportunityBV'
p4993
I1
tp4994
a(S'@Tashly_f'
p4995
I1
tp4996
a(S'@PiaSundqvist'
p4997
I1
tp4998
a(S'@Fanvanroyalty'
p4999
I1
tp5000
a(S'@itisnotyours_'
p5001
I1
tp5002
a(S'@haroldggg'
p5003
I1
tp5004
a(S'@OzcanUzun'
p5005
I1
tp5006
a(S'@MilouskaMeulens'
p5007
I1
tp5008
a(S'@UitinDRV'
p5009
I1
tp5010
a(S'@Talizaverhoeven'
p5011
I1
tp5012
a(S'@NavyBlueCanaryy'
p5013
I1
tp5014
a(S'@7ContinentsNews'
p5015
I1
tp5016
a(S'@Rawr_its_Lynn'
p5017
I1
tp5018
a(S'@melissakoudijs'
p5019
I1
tp5020
a(S'@Burgernet_FR'
p5021
I1
tp5022
a(S'@AnadoluYakaGFB'
p5023
I1
tp5024
a(S'@P4WPRINTS'
p5025
I1
tp5026
a(S'@ErikaTweetTo'
p5027
I1
tp5028
a(S'@YvetElisa'
p5029
I1
tp5030
a(S'@ItzRebaaz'
p5031
I1
tp5032
a(S'@liekevanlexmond'
p5033
I1
tp5034
a(S'@scheepvaartnews'
p5035
I1
tp5036
a(S'@MeneerBakx'
p5037
I1
tp5038
a(S'@cariolita'
p5039
I1
tp5040
a(S'@CO2HOG'
p5041
I1
tp5042
a(S'@PEManuhutu'
p5043
I1
tp5044
a(S'@_FFBlogs_World'
p5045
I1
tp5046
a(S'@LOVEMAINIAC_'
p5047
I1
tp5048
a(S'@JohnnyCJohnson'
p5049
I1
tp5050
a(S'@patriciaderyck'
p5051
I1
tp5052
a(S'@RijadGlasic'
p5053
I1
tp5054
a(S'@TeunvanNoorloos'
p5055
I1
tp5056
a(S'@Perkamentusblog'
p5057
I1
tp5058
a(S'@iamacm__'
p5059
I1
tp5060
a(S'@AnjaxNS'
p5061
I1
tp5062
a(S'@MarloesCoenen'
p5063
I1
tp5064
a(S'@ABBBOUWGROEP'
p5065
I1
tp5066
a(S'@narendramodi'
p5067
I1
tp5068
a(S'@_xJamylee'
p5069
I1
tp5070
a(S'@ChahrazadEJ_'
p5071
I1
tp5072
a(S'@Nevielgg'
p5073
I1
tp5074
a(S'@linkspolitiek'
p5075
I1
tp5076
a(S'@ShabbaKing'
p5077
I1
tp5078
a(S'@xqqo'
p5079
I1
tp5080
a(S'@_bbregje'
p5081
I1
tp5082
a(S'@DominatrixDinah'
p5083
I1
tp5084
a(S'@JohanBokma'
p5085
I1
tp5086
a(S'@chateauhotels'
p5087
I1
tp5088
a(S'@ETQAmsterdam'
p5089
I1
tp5090
a(S'@dreoudman'
p5091
I1
tp5092
a(S'@TMOmanagement'
p5093
I1
tp5094
a(S'@TheUnitedTeus'
p5095
I1
tp5096
a(S'@Dead__Parrot'
p5097
I1
tp5098
a(S'@zehragulsah'
p5099
I1
tp5100
a(S'@IrmakBaharK'
p5101
I1
tp5102
a(S'@ontariosflow'
p5103
I1
tp5104
a(S'@Mehmet_vld'
p5105
I1
tp5106
a(S'@Santi_Perdomo27'
p5107
I1
tp5108
a(S'@PraatPiraat'
p5109
I1
tp5110
a(S'@marketingyudai'
p5111
I1
tp5112
a(S'@Luidprotest'
p5113
I1
tp5114
a(S'@Nassimb_'
p5115
I1
tp5116
a(S'@Issamdahri'
p5117
I1
tp5118
a(S'@xYoussra_'
p5119
I1
tp5120
a(S'@Lyckie'
p5121
I1
tp5122
a(S'@_OrpahVGx'
p5123
I1
tp5124
a(S'@TamoorT'
p5125
I1
tp5126
a(S'@eigenwebsite'
p5127
I1
tp5128
a(S'@Zichtadviseurs'
p5129
I1
tp5130
a(S'@HISWAVereniging'
p5131
I1
tp5132
a(S'@MeelBecerra14'
p5133
I1
tp5134
a(S'@sanderschelberg'
p5135
I1
tp5136
a(S'@julietrauhl'
p5137
I1
tp5138
a(S'@Gebouwfeiten'
p5139
I1
tp5140
a(S'@KarinaxRianne'
p5141
I1
tp5142
a(S'@H_Vonder'
p5143
I1
tp5144
a(S'@JayOne_'
p5145
I1
tp5146
a(S'@bzbyk1907'
p5147
I1
tp5148
a(S'@godishandsome'
p5149
I1
tp5150
a(S'@CarlosDiez_10'
p5151
I1
tp5152
a(S'@NBTC'
p5153
I1
tp5154
a(S'@_ThermenTilburg'
p5155
I1
tp5156
a(S'@KingBrinta'
p5157
I1
tp5158
a(S'@w_headlines'
p5159
I1
tp5160
a(S'@anisavossen'
p5161
I1
tp5162
a(S'@floornikki_'
p5163
I1
tp5164
a(S'@AH_Haren'
p5165
I1
tp5166
a(S'@Martin_Bd'
p5167
I1
tp5168
a(S'@Koennn77'
p5169
I1
tp5170
a(S'@MusaDD_'
p5171
I1
tp5172
a(S'@survivalstation'
p5173
I1
tp5174
a(S'@_xILOVEBIEBERx'
p5175
I1
tp5176
a(S'@DietistLwd'
p5177
I1
tp5178
a(S'@WerkXYZHRM'
p5179
I1
tp5180
a(S'@overnieuwwerken'
p5181
I1
tp5182
a(S'@Starrrbucks__'
p5183
I1
tp5184
a(S'@AlejandroRey99'
p5185
I1
tp5186
a(S'@Skihut_Tilburg'
p5187
I1
tp5188
a(S'@xAngii3'
p5189
I1
tp5190
a(S'@_Glennmahh'
p5191
I1
tp5192
a(S'@RoyalKusher'
p5193
I1
tp5194
a(S'@Sergio_Moriano'
p5195
I1
tp5196
a(S'@zoexloves'
p5197
I1
tp5198
a(S'@Kelly020__x'
p5199
I1
tp5200
a(S'@kussrachel'
p5201
I1
tp5202
a(S'@happyChaos'
p5203
I1
tp5204
a(S'@ruttie015'
p5205
I1
tp5206
a(S'@Efteling'
p5207
I1
tp5208
a(S'@recaigucukk'
p5209
I1
tp5210
a(S'@jeannetabma'
p5211
I1
tp5212
a(S'@Bgmdoet'
p5213
I1
tp5214
a(S'@JanMudde'
p5215
I1
tp5216
a(S'@VanFrikschoten'
p5217
I1
tp5218
a(S'@CelesteLTx'
p5219
I1
tp5220
a(S'@CCPeeloAssen'
p5221
I1
tp5222
a(S'@riahazenberg'
p5223
I1
tp5224
a(S'@pyruqeqyqoka'
p5225
I1
tp5226
a(S'@premiumdemo3'
p5227
I1
tp5228
a(S'@MrFreeze23'
p5229
I1
tp5230
a(S'@ian_iia'
p5231
I1
tp5232
a(S'@Djerik2'
p5233
I1
tp5234
a(S'@EnnydeBruijn'
p5235
I1
tp5236
a(S'@perctrax'
p5237
I1
tp5238
a(S'@ferreyraluchi'
p5239
I1
tp5240
a(S'@Taipan_Starr'
p5241
I1
tp5242
a(S'@lichtenvoordenl'
p5243
I1
tp5244
a(S'@VanderwurpBV'
p5245
I1
tp5246
a(S'@GlennOnTwit'
p5247
I1
tp5248
a(S'@ingekaars'
p5249
I1
tp5250
a(S'@xSharonSchram'
p5251
I1
tp5252
a(S'@_xEsther'
p5253
I1
tp5254
a(S'@MBOkwalificatie'
p5255
I1
tp5256
a(S'@kellaa_'
p5257
I1
tp5258
a(S'@vessjay'
p5259
I1
tp5260
a(S'@TC_AliBaba1907'
p5261
I1
tp5262
a(S'@xIlse8'
p5263
I1
tp5264
a(S'@NNNaomi_'
p5265
I1
tp5266
a(S'@MartineCouperus'
p5267
I1
tp5268
a(S'@Chiromzz'
p5269
I1
tp5270
a(S'@Coffee_Fresh'
p5271
I1
tp5272
a(S'@diario_panorama'
p5273
I1
tp5274
a(S'@lucasandreaszkh'
p5275
I1
tp5276
a(S'@PolitieHaaksber'
p5277
I1
tp5278
a(S'@WendyAluy'
p5279
I1
tp5280
a(S'@Laurens_MUFC'
p5281
I1
tp5282
a(S'@ShareAcademy'
p5283
I1
tp5284
a(S'@AstridNielen'
p5285
I1
tp5286
a(S'@_JShirr'
p5287
I1
tp5288
a(S'@Knuppelkneus'
p5289
I1
tp5290
a(S'@yizmo'
p5291
I1
tp5292
a(S'@fer_goos'
p5293
I1
tp5294
a(S'@Langedijknieuws'
p5295
I1
tp5296
a(S'@Ninahoogstede'
p5297
I1
tp5298
a(S'@BasNieuwpoort'
p5299
I1
tp5300
a(S'@BrijderJeugd'
p5301
I1
tp5302
a(S'@goky_han'
p5303
I1
tp5304
a(S'@Timmzie98'
p5305
I1
tp5306
a(S'@_Bevelanden'
p5307
I1
tp5308
a(S'@rmelanie_'
p5309
I1
tp5310
a(S'@hibaag_'
p5311
I1
tp5312
a(S'@FemkeMeines'
p5313
I1
tp5314
a(S'@m2styling'
p5315
I1
tp5316
a(S'@Se1453'
p5317
I1
tp5318
a(S'@mirameijerx'
p5319
I1
tp5320
a(S'@Zuigbot'
p5321
I1
tp5322
a(S'@macekster'
p5323
I1
tp5324
a(S'@migyzaguirre'
p5325
I1
tp5326
a(S'@Delaysiah_x'
p5327
I1
tp5328
a(S'@arkhaelsam'
p5329
I1
tp5330
a(S'@saskiaterwelle'
p5331
I1
tp5332
a(S'@Study_Group'
p5333
I1
tp5334
a(S'@tha5elements'
p5335
I1
tp5336
a(S'@opurk'
p5337
I1
tp5338
a(S'@DDoSnieuws'
p5339
I1
tp5340
a(S'@haniehidayah'
p5341
I1
tp5342
a(S'@RuudPeeters'
p5343
I1
tp5344
a(S'@LaCajaChina'
p5345
I1
tp5346
a(S'@arbobz'
p5347
I1
tp5348
a(S'@romeomvar'
p5349
I1
tp5350
a(S'@SOVEEamersfoort'
p5351
I1
tp5352
a(S'@DAretailgroep'
p5353
I1
tp5354
a(S'@slamfm'
p5355
I1
tp5356
a(S'@AHVinkeveen'
p5357
I1
tp5358
a(S'@OranjecomiteK'
p5359
I1
tp5360
a(S'@Rickkamphorst'
p5361
I1
tp5362
a(S'@danieldierdorp'
p5363
I1
tp5364
a(S'@peggynishitax'
p5365
I1
tp5366
a(S'@marliekekoops'
p5367
I1
tp5368
a(S'@Batsknien'
p5369
I1
tp5370
a(S'@grada360'
p5371
I1
tp5372
a(S'@Pathe'
p5373
I1
tp5374
a(S'@soapscoop'
p5375
I1
tp5376
a(S'@WeAreFashion'
p5377
I1
tp5378
a(S'@frankvde'
p5379
I1
tp5380
a(S'@Ben_Elliott'
p5381
I1
tp5382
a(S'@Vinny_Egh'
p5383
I1
tp5384
a(S'@irisrusink'
p5385
I1
tp5386
a(S'@Kaytomlinson13'
p5387
I1
tp5388
a(S'@xoxoMaaikiee'
p5389
I1
tp5390
a(S'@MirjamMahonex_'
p5391
I1
tp5392
a(S'@AnoukdeHeus'
p5393
I1
tp5394
a(S'@xMelissaKusjex'
p5395
I1
tp5396
a(S'@Renegade782003'
p5397
I1
tp5398
a(S'@emames'
p5399
I1
tp5400
a(S'@FMCnl'
p5401
I1
tp5402
a(S'@Naim_GS1905'
p5403
I1
tp5404
a(S'@i_thots'
p5405
I1
tp5406
a(S'@m_normington'
p5407
I1
tp5408
a(S'@neOnejersey'
p5409
I1
tp5410
a(S'@Spitstwit'
p5411
I1
tp5412
a(S'@Stefffiee'
p5413
I1
tp5414
a(S'@Nassimm_'
p5415
I1
tp5416
a(S'@KROKookschool'
p5417
I1
tp5418
a(S'@svanweyenberg'
p5419
I1
tp5420
a(S'@jaimy372'
p5421
I1
tp5422
a(S'@ArnoudvDoorn'
p5423
I1
tp5424
a(S'@DemideJonge'
p5425
I1
tp5426
a(S'@Flames_Msss'
p5427
I1
tp5428
a(S'@netevenleuker'
p5429
I1
tp5430
a(S'@delftsepost'
p5431
I1
tp5432
a(S'@iiCrazyKiDD_'
p5433
I1
tp5434
a(S'@niluferfisek'
p5435
I1
tp5436
a(S'@EmpireProject'
p5437
I1
tp5438
a(S'@elleeditor'
p5439
I1
tp5440
a(S'@viaggibenessere'
p5441
I1
tp5442
a(S'@ikbenchristen'
p5443
I1
tp5444
a(S'@MolAgrocom'
p5445
I1
tp5446
a(S'@AppieTweets'
p5447
I1
tp5448
a(S'@TimmieKoor'
p5449
I1
tp5450
a(S'@PoliZiek1'
p5451
I1
tp5452
a(S'@fotolieve'
p5453
I1
tp5454
a(S'@KayJay_NoizM'
p5455
I1
tp5456
a(S'@RTV_Rijnmond'
p5457
I1
tp5458
a(S'@DefqonOne_'
p5459
I1
tp5460
a(S'@MissetHoreca'
p5461
I1
tp5462
a(S'@24hrcs'
p5463
I1
tp5464
a(S'@vankarine'
p5465
I1
tp5466
a(S'@muziekvannu'
p5467
I1
tp5468
a(S'@VogliaDiC'
p5469
I1
tp5470
a(S'@casinohommerson'
p5471
I1
tp5472
a(S'@ChevernyShaista'
p5473
I1
tp5474
a(S'@InbrengWinkelMa'
p5475
I1
tp5476
a(S'@DeGroene'
p5477
I1
tp5478
a(S'@xChantalletje'
p5479
I1
tp5480
a(S'@CafeTheBottom'
p5481
I1
tp5482
a(S'@SenseUtrecht'
p5483
I1
tp5484
a(S'@pattiemallette'
p5485
I1
tp5486
a(S'@SchouwburgCuijk'
p5487
I1
tp5488
a(S'@_Meliisaa'
p5489
I1
tp5490
a(S'@iMXRnB_'
p5491
I1
tp5492
a(S'@yayii_lamuertes'
p5493
I1
tp5494
a(S'@gerardsese'
p5495
I1
tp5496
a(S'@kookpunttweet'
p5497
I1
tp5498
a(S'@All4jobsAnnette'
p5499
I1
tp5500
a(S'@AnthonyR1536'
p5501
I1
tp5502
a(S'@kushpuppy'
p5503
I1
tp5504
a(S'@KiyomiAGENT'
p5505
I1
tp5506
a(S'@WorldOfOneness'
p5507
I1
tp5508
a(S'@rutger_'
p5509
I1
tp5510
a(S'@TatilinSesi'
p5511
I1
tp5512
a(S'@Johnnyvier'
p5513
I1
tp5514
a(S'@LotteImy'
p5515
I1
tp5516
a(S'@csarabrown'
p5517
I1
tp5518
a(S'@emeltekin1907'
p5519
I1
tp5520
a(S'@clientenbelanga'
p5521
I1
tp5522
a(S'@teeveechris'
p5523
I1
tp5524
a(S'@MylenneCarmen_'
p5525
I1
tp5526
a(S'@gazetapopolsku'
p5527
I1
tp5528
a(S'@mentalacrobatic'
p5529
I1
tp5530
a(S'@sackampen'
p5531
I1
tp5532
a(S'@PaulineValkenet'
p5533
I1
tp5534
a(S'@MatJ_Soares'
p5535
I1
tp5536
a(S'@janeringakl'
p5537
I1
tp5538
a(S'@JustBart_'
p5539
I1
tp5540
a(S'@zboyy'
p5541
I1
tp5542
a(S'@LucasHudak'
p5543
I1
tp5544
a(S'@crazyfrogalmelo'
p5545
I1
tp5546
a(S'@1LatinVillage'
p5547
I1
tp5548
a(S'@SHOhoreca'
p5549
I1
tp5550
a(S'@trulyjill'
p5551
I1
tp5552
a(S'@RaoulManuel'
p5553
I1
tp5554
a(S'@Brianmuziq'
p5555
I1
tp5556
a(S'@xoBente'
p5557
I1
tp5558
a(S'@NL_SSCNapoli'
p5559
I1
tp5560
a(S'@BartMos'
p5561
I1
tp5562
a(S'@julietteee2'
p5563
I1
tp5564
a(S'@RSSmedios'
p5565
I1
tp5566
a(S'@remcovvd'
p5567
I1
tp5568
a(S'@xmauuri_'
p5569
I1
tp5570
a(S'@dannyskinny'
p5571
I1
tp5572
a(S'@JaouadOfficial'
p5573
I1
tp5574
a(S'@MoniekPaus'
p5575
I1
tp5576
a(S'@neavv'
p5577
I1
tp5578
a(S'@Gemeente_Veere'
p5579
I1
tp5580
a(S'@Vitonee'
p5581
I1
tp5582
a(S'@ijsselhallen'
p5583
I1
tp5584
a(S'@DetroitSwindle'
p5585
I1
tp5586
a(S'@AnnieAppelboom'
p5587
I1
tp5588
a(S'@muziekpark'
p5589
I1
tp5590
a(S'@BeatsByWibra'
p5591
I1
tp5592
a(S'@fros201'
p5593
I1
tp5594
a(S'@kokkielloret'
p5595
I1
tp5596
a(S'@xkusjedina'
p5597
I1
tp5598
a(S'@leonbakermans'
p5599
I1
tp5600
a(S'@yassineee_'
p5601
I1
tp5602
a(S'@xpaulakusje'
p5603
I1
tp5604
a(S'@Badrstfu'
p5605
I1
tp5606
a(S'@nadiafeijt'
p5607
I1
tp5608
a(S'@MartinBrouwers'
p5609
I1
tp5610
a(S'@R0bb133'
p5611
I1
tp5612
a(S'@DAOWENS44'
p5613
I1
tp5614
a(S'@fungiLA'
p5615
I1
tp5616
a(S'@ohmydiego'
p5617
I1
tp5618
a(S'@Klimaatmakers'
p5619
I1
tp5620
a(S'@sterrenfeitjes'
p5621
I1
tp5622
a(S'@YuriSegers'
p5623
I1
tp5624
a(S'@LonnekeLouette'
p5625
I1
tp5626
a(S'@ClubIndex'
p5627
I1
tp5628
a(S'@xaileendejong'
p5629
I1
tp5630
a(S'@HeijmansNL'
p5631
I1
tp5632
a(S'@Xinj'
p5633
I1
tp5634
a(S'@SwaggBritneyy'
p5635
I1
tp5636
a(S'@Gemeente_Assen'
p5637
I1
tp5638
a(S'@trucksatwork'
p5639
I1
tp5640
a(S'@ArvisaisA'
p5641
I1
tp5642
a(S'@_TG1997'
p5643
I1
tp5644
a(S'@oranjegroningen'
p5645
I1
tp5646
a(S'@jesus_A2505'
p5647
I1
tp5648
a(S'@JK_QUiiNA'
p5649
I1
tp5650
a(S'@GGeho'
p5651
I1
tp5652
a(S'@DarahCG_'
p5653
I1
tp5654
a(S'@xparanoah'
p5655
I1
tp5656
a(S'@ndiafrhxna'
p5657
I1
tp5658
a(S'@RangersFacebook'
p5659
I1
tp5660
a(S'@WendyValat_'
p5661
I1
tp5662
a(S'@NaomiC_xXxX'
p5663
I1
tp5664
a(S'@JorneBoss'
p5665
I1
tp5666
a(S'@tomafca410'
p5667
I1
tp5668
a(S'@rooienbart'
p5669
I1
tp5670
a(S'@GezondeGemeente'
p5671
I1
tp5672
a(S'@CarlWinters5'
p5673
I1
tp5674
a(S'@S_ORourke'
p5675
I1
tp5676
a(S'@RickvW1990'
p5677
I1
tp5678
a(S'@femkeee95xx'
p5679
I1
tp5680
a(S'@wicherth'
p5681
I1
tp5682
a(S'@JessicaTyler'
p5683
I1
tp5684
a(S'@profsarahj'
p5685
I1
tp5686
a(S'@sanatjeb'
p5687
I1
tp5688
a(S'@xinsss_'
p5689
I1
tp5690
a(S'@Dumbkid_'
p5691
I1
tp5692
a(S'@cleandesk'
p5693
I1
tp5694
a(S'@KieranMayo'
p5695
I1
tp5696
a(S'@BelvedereDelft'
p5697
I1
tp5698
a(S'@itziarii'
p5699
I1
tp5700
a(S'@semaankarali'
p5701
I1
tp5702
a(S'@3voor12nh'
p5703
I1
tp5704
a(S'@deindruk'
p5705
I1
tp5706
a(S'@SpijkenisseTIPS'
p5707
I1
tp5708
a(S'@HrobbertH'
p5709
I1
tp5710
a(S'@IntratuinTerAar'
p5711
I1
tp5712
a(S'@_bramm'
p5713
I1
tp5714
a(S'@marianpropstra'
p5715
I1
tp5716
a(S'@DebbyMelody_'
p5717
I1
tp5718
a(S'@ozgeyildirim48'
p5719
I1
tp5720
a(S'@zunnebeld'
p5721
I1
tp5722
a(S'@the_Agent666'
p5723
I1
tp5724
a(S'@OhStarsweb'
p5725
I1
tp5726
a(S'@edaerdem14'
p5727
I1
tp5728
a(S'@MStiggelbout'
p5729
I1
tp5730
a(S'@DutchDisaster'
p5731
I1
tp5732
a(S'@chrismpeters'
p5733
I1
tp5734
a(S'@xLexi_'
p5735
I1
tp5736
a(S'@TopVintage'
p5737
I1
tp5738
a(S'@MBrulard'
p5739
I1
tp5740
a(S'@kuskel_x'
p5741
I1
tp5742
a(S'@Sebas_vdWerf'
p5743
I1
tp5744
a(S'@CorinneBeumer'
p5745
I1
tp5746
a(S'@Courrier_picard'
p5747
I1
tp5748
a(S'@ajthijssen'
p5749
I1
tp5750
a(S'@MyrneHulshof'
p5751
I1
tp5752
a(S'@fktwiitter'
p5753
I1
tp5754
a(S'@hugo_stojo'
p5755
I1
tp5756
a(S'@AdvanWensen'
p5757
I1
tp5758
a(S'@MusiqSoulchild'
p5759
I1
tp5760
a(S'@shanesmith30'
p5761
I1
tp5762
a(S'@washingtonpost'
p5763
I1
tp5764
a(S'@news24hnld'
p5765
I1
tp5766
a(S'@EcesuBayir'
p5767
I1
tp5768
a(S'@TwitGrap'
p5769
I1
tp5770
a(S'@HetZuiderbad'
p5771
I1
tp5772
a(S'@thedailybeast'
p5773
I1
tp5774
a(S'@B2Bcontact'
p5775
I1
tp5776
a(S'@iiLikeYouDaily'
p5777
I1
tp5778
a(S'@HansSchiffers'
p5779
I1
tp5780
a(S'@ILOVECHAIMSS_'
p5781
I1
tp5782
a(S'@AltijdGtst'
p5783
I1
tp5784
a(S'@connecttocore'
p5785
I1
tp5786
a(S'@Nejobueno'
p5787
I1
tp5788
a(S'@heskegaatervoor4m'
p5789
I1
tp5790
a(S'@danielveltman'
p5791
I1
tp5792
a(S'@peterroosink'
p5793
I1
tp5794
a(S'@nedenttoldu'
p5795
I1
tp5796
a(S'@fnetwerk'
p5797
I1
tp5798
a(S'@FC_MTELO_NL'
p5799
I1
tp5800
a(S'@bryan0548'
p5801
I1
tp5802
a(S'@remregterschot'
p5803
I1
tp5804
a(S'@LizHookway'
p5805
I1
tp5806
a(S'@DeSlofVorden'
p5807
I1
tp5808
a(S'@cupcakeniam'
p5809
I1
tp5810
a(S'@JeugdbiebNieuws'
p5811
I1
tp5812
a(S'@HansExterkate'
p5813
I1
tp5814
a(S'@xblondxo'
p5815
I1
tp5816
a(S'@robinvtil'
p5817
I1
tp5818
a(S'@xliescastricum'
p5819
I1
tp5820
a(S'@SDITJE_'
p5821
I1
tp5822
a(S'@RubenTweeet15'
p5823
I1
tp5824
a(S'@Jointhepipe'
p5825
I1
tp5826
a(S'@Projexts_NL'
p5827
I1
tp5828
a(S'@JaneChiara_'
p5829
I1
tp5830
a(S'@dimitrivantomme'
p5831
I1
tp5832
a(S'@blauweshop'
p5833
I1
tp5834
a(S'@tickleherbum'
p5835
I1
tp5836
a(S'@SvenOrnelis'
p5837
I1
tp5838
a(S'@Dimfwandel'
p5839
I1
tp5840
a(S'@jessedaily_'
p5841
I1
tp5842
a(S'@DYNCX'
p5843
I1
tp5844
a(S'@VosInterieur'
p5845
I1
tp5846
a(S'@MiguelAngelRoca'
p5847
I1
tp5848
a(S'@Assenaren'
p5849
I1
tp5850
a(S'@SoyIronico'
p5851
I1
tp5852
a(S'@Spanjevandaag'
p5853
I1
tp5854
a(S'@STABILOpens'
p5855
I1
tp5856
a(S'@srhilberink'
p5857
I1
tp5858
a(S'@petermid'
p5859
I1
tp5860
a(S'@efcLIAMefc'
p5861
I1
tp5862
a(S'@Russian_Art_NL'
p5863
I1
tp5864
a(S'@NLVogue'
p5865
I1
tp5866
a(S'@xNNN_'
p5867
I1
tp5868
a(S'@xGebakke_Banaan'
p5869
I1
tp5870
a(S'@Akif_Selena'
p5871
I1
tp5872
a(S'@MeLifeAsCarlito'
p5873
I1
tp5874
a(S'@KeizerrijkD'
p5875
I1
tp5876
a(S'@kingsdaylive'
p5877
I1
tp5878
a(S'@Kaapstadmag'
p5879
I1
tp5880
a(S'@hannahverhoeff'
p5881
I1
tp5882
a(S'@Julieeeeetx'
p5883
I1
tp5884
a(S'@nieuws_0164'
p5885
I1
tp5886
a(S'@corneeeKWZ'
p5887
I1
tp5888
a(S'@dennish007'
p5889
I1
tp5890
a(S'@marritzijlstra'
p5891
I1
tp5892
a(S'@CorpsPromotions'
p5893
I1
tp5894
a(S'@pvdmeersch'
p5895
I1
tp5896
a(S'@Stadsdeel_Oost'
p5897
I1
tp5898
a(S'@ukfashionintern'
p5899
I1
tp5900
a(S'@Hazallbayrak'
p5901
I1
tp5902
a(S'@Zilverberg'
p5903
I1
tp5904
a(S'@furkan42baykal'
p5905
I1
tp5906
a(S'@geennieuws_com'
p5907
I1
tp5908
a(S'@NadineKieboom'
p5909
I1
tp5910
a(S'@Ayoubbx'
p5911
I1
tp5912
a(S'@Ingested'
p5913
I1
tp5914
a(S'@SunMotorsport'
p5915
I1
tp5916
a(S'@_oyoks'
p5917
I1
tp5918
a(S'@DemideWeert'
p5919
I1
tp5920
a(S'@fleurdigger'
p5921
I1
tp5922
a(S'@alexxeladj'
p5923
I1
tp5924
a(S'@havpwensing'
p5925
I1
tp5926
a(S'@skipr'
p5927
I1
tp5928
a(S'@IrishGBC'
p5929
I1
tp5930
a(S'@KayNagar'
p5931
I1
tp5932
a(S'@heinekentweets'
p5933
I1
tp5934
a(S'@BuurtzorgJongA'
p5935
I1
tp5936
a(S'@radiomoths'
p5937
I1
tp5938
a(S'@TheTabooArtist'
p5939
I1
tp5940
a(S'@tkn_aysun'
p5941
I1
tp5942
a(S'@sfknieuws'
p5943
I1
tp5944
a(S'@franceinfo'
p5945
I1
tp5946
a(S'@NOSRadio1'
p5947
I1
tp5948
a(S'@PetitoSdaa'
p5949
I1
tp5950
a(S'@DG96_'
p5951
I1
tp5952
a(S'@mateomackaay'
p5953
I1
tp5954
a(S'@Fenerbahce2013'
p5955
I1
tp5956
a(S'@BartJanSpruyt'
p5957
I1
tp5958
a(S'@MarokkaansBloed'
p5959
I1
tp5960
a(S'@Kaajx'
p5961
I1
tp5962
a(S'@Kusx_Anke'
p5963
I1
tp5964
a(S'@noordgouwheerde'
p5965
I1
tp5966
a(S'@leesditboek'
p5967
I1
tp5968
a(S'@TDixon32'
p5969
I1
tp5970
a(S'@Dordunju'
p5971
I1
tp5972
a(S'@di0nnie_'
p5973
I1
tp5974
a(S'@jessepaints'
p5975
I1
tp5976
a(S'@brandtweer'
p5977
I1
tp5978
a(S'@inabjorn'
p5979
I1
tp5980
a(S'@Vera_Kandelaar'
p5981
I1
tp5982
a(S'@VillaVPRO'
p5983
I1
tp5984
a(S'@xchelsey0492'
p5985
I1
tp5986
a(S'@nickmatthew'
p5987
I1
tp5988
a(S'@RonaldStraub'
p5989
I1
tp5990
a(S'@akkedingdong'
p5991
I1
tp5992
a(S'@VVVSalland'
p5993
I1
tp5994
a(S'@sunbeltgirl'
p5995
I1
tp5996
a(S'@HindrikVonk'
p5997
I1
tp5998
a(S'@sjoes'
p5999
I1
tp6000
a(S'@MarokaanEl'
p6001
I1
tp6002
a(S'@Kletskous'
p6003
I1
tp6004
a(S'@westkapelleinfo'
p6005
I1
tp6006
a(S'@Annnna___'
p6007
I1
tp6008
a(S'@AndresPanno'
p6009
I1
tp6010
a(S'@Ramsterdam'
p6011
I1
tp6012
a(S'@frankvanpamelen'
p6013
I1
tp6014
a(S'@robwijnberg'
p6015
I1
tp6016
a(S'@SabineBlomvA'
p6017
I1
tp6018
a(S'@stewslawrence'
p6019
I1
tp6020
a(S'@SteveMargaritha'
p6021
I1
tp6022
a(S'@hulpvoorhulp'
p6023
I1
tp6024
a(S'@annemiekverbeek'
p6025
I1
tp6026
a(S'@KillForYouxx'
p6027
I1
tp6028
a(S'@jekleinereno'
p6029
I1
tp6030
a(S'@peterdonk'
p6031
I1
tp6032
a(S'@dutchwoodnl'
p6033
I1
tp6034
a(S'@kvw'
p6035
I1
tp6036
a(S'@NijkerkNu'
p6037
I1
tp6038
a(S'@mirteee123'
p6039
I1
tp6040
a(S'@xolisa22'
p6041
I1
tp6042
a(S'@AshGreenleaf'
p6043
I1
tp6044
a(S'@ilovejette_'
p6045
I1
tp6046
a(S'@HansVink'
p6047
I1
tp6048
a(S'@NienCom'
p6049
I1
tp6050
a(S'@iMerell'
p6051
I1
tp6052
a(S'@AFAS'
p6053
I1
tp6054
a(S'@Radiojens'
p6055
I1
tp6056
a(S'@kusjevansunneva'
p6057
I1
tp6058
a(S'@II0___0II'
p6059
I1
tp6060
a(S'@_Trishaa_S'
p6061
I1
tp6062
a(S'@TerschellingTuk'
p6063
I1
tp6064
a(S'@databytebizz'
p6065
I1
tp6066
a(S'@4meiDokkum'
p6067
I1
tp6068
a(S'@dcjverhoeven'
p6069
I1
tp6070
a(S'@EllenLiefting'
p6071
I1
tp6072
a(S'@KAMILAxYS'
p6073
I1
tp6074
a(S'@macnolian'
p6075
I1
tp6076
a(S'@ictnieuws'
p6077
I1
tp6078
a(S'@eoin_walker'
p6079
I1
tp6080
a(S'@Munnikenslag'
p6081
I1
tp6082
a(S'@GreenjoyNL'
p6083
I1
tp6084
a(S'@Melanyhartjex'
p6085
I1
tp6086
a(S'@pooltjee'
p6087
I1
tp6088
a(S'@UwJuwelier'
p6089
I1
tp6090
a(S'@tyrone_97x'
p6091
I1
tp6092
a(S'@amreus'
p6093
I1
tp6094
a(S'@Ee1co'
p6095
I1
tp6096
a(S'@vdhaan'
p6097
I1
tp6098
a(S'@TashiaFurumi'
p6099
I1
tp6100
a(S'@Doubble_U'
p6101
I1
tp6102
a(S'@jordyokx'
p6103
I1
tp6104
a(S'@jwTiel'
p6105
I1
tp6106
a(S'@NaDinRa99'
p6107
I1
tp6108
a(S'@Mikevr94'
p6109
I1
tp6110
a(S'@Sander_Aa'
p6111
I1
tp6112
a(S'@Cowboy_Carl'
p6113
I1
tp6114
a(S'@DeBogtFenGune'
p6115
I1
tp6116
a(S'@anna__jacobs'
p6117
I1
tp6118
a(S'@BBlunt_'
p6119
I1
tp6120
a(S'@marianbekkers'
p6121
I1
tp6122
a(S'@Robboom1972'
p6123
I1
tp6124
a(S'@L1926K'
p6125
I1
tp6126
a(S'@janvos_pvda'
p6127
I1
tp6128
a(S'@VanVelzes'
p6129
I1
tp6130
a(S'@BordeKock'
p6131
I1
tp6132
a(S'@MakroNieuwegein'
p6133
I1
tp6134
a(S'@HerzogSport'
p6135
I1
tp6136
a(S'@imisax'
p6137
I1
tp6138
a(S'@FD_Nieuws'
p6139
I1
tp6140
a(S'@Bijdendermonde'
p6141
I1
tp6142
a(S'@lvanhorssen'
p6143
I1
tp6144
a(S'@rrobiinx'
p6145
I1
tp6146
a(S'@LeeRoyBader_FR'
p6147
I1
tp6148
a(S'@hardcoredizzle'
p6149
I1
tp6150
a(S'@_Lucky98'
p6151
I1
tp6152
a(S'@valentiinoMSK'
p6153
I1
tp6154
a(S'@Onderwijstalent'
p6155
I1
tp6156
a(S'@Brasserie1560'
p6157
I1
tp6158
a(S'@statistiekcbs'
p6159
I1
tp6160
a(S'@KimRamaherison'
p6161
I1
tp6162
a(S'@RichieEJP'
p6163
I1
tp6164
a(S'@PetulaMoore'
p6165
I1
tp6166
a(S'@STOELTJESSS'
p6167
I1
tp6168
a(S'@Design8bv'
p6169
I1
tp6170
a(S'@TheBruune'
p6171
I1
tp6172
a(S'@perryvanbeek'
p6173
I1
tp6174
a(S'@iHartjeJurre_'
p6175
I1
tp6176
a(S'@GerardBueters'
p6177
I1
tp6178
a(S'@DietGroothuis'
p6179
I1
tp6180
a(S'@deposthoorn'
p6181
I1
tp6182
a(S'@ManuelPryce'
p6183
I1
tp6184
a(S'@alenb259'
p6185
I1
tp6186
a(S'@MVEtiquette'
p6187
I1
tp6188
a(S'@jipperdemeern'
p6189
I1
tp6190
a(S'@2Generations'
p6191
I1
tp6192
a(S'@semana_revista'
p6193
I1
tp6194
a(S'@darmoore316'
p6195
I1
tp6196
a(S'@HostelROOM'
p6197
I1
tp6198
a(S'@HartjeFloorx'
p6199
I1
tp6200
a(S'@Rivaman'
p6201
I1
tp6202
a(S'@Car1yn'
p6203
I1
tp6204
a(S'@justloveamberx'
p6205
I1
tp6206
a(S'@Buket__u'
p6207
I1
tp6208
a(S'@Noedotweets'
p6209
I1
tp6210
a(S'@PurpleSteenwijk'
p6211
I1
tp6212
a(S'@11afdra'
p6213
I1
tp6214
a(S'@jcgoudbeek'
p6215
I1
tp6216
a(S'@JackC1406'
p6217
I1
tp6218
a(S'@Mr_Big_Bucks'
p6219
I1
tp6220
a(S'@xSilkexx'
p6221
I1
tp6222
a(S'@Alert_from_Asia'
p6223
I1
tp6224
a(S'@mader_eliz'
p6225
I1
tp6226
a(S'@Match4ULochem'
p6227
I1
tp6228
a(S'@Turk_Telekom'
p6229
I1
tp6230
a(S'@iTornOverStyles'
p6231
I1
tp6232
a(S'@Fatmalovesxx'
p6233
I1
tp6234
a(S'@consultancy_nl'
p6235
I1
tp6236
a(S'@ikbenfantasie_'
p6237
I1
tp6238
a(S'@burak_altindal'
p6239
I1
tp6240
a(S'@HRSBstandbouw'
p6241
I1
tp6242
a(S'@JohannaVL'
p6243
I1
tp6244
a(S'@racheltraetz'
p6245
I1
tp6246
a(S'@MaximaOils'
p6247
I1
tp6248
a(S'@TijdschriftTina'
p6249
I1
tp6250
a(S'@msandifort'
p6251
I1
tp6252
a(S'@DebbyEgo'
p6253
I1
tp6254
a(S'@xmaschahendriks'
p6255
I1
tp6256
a(S'@_LianX'
p6257
I1
tp6258
a(S'@Feyenoord1nl'
p6259
I1
tp6260
a(S'@AAdamm13'
p6261
I1
tp6262
a(S'@Daveyliano_'
p6263
I1
tp6264
a(S'@RedCarpetNL'
p6265
I1
tp6266
a(S'@OhKutHetIsLaura'
p6267
I1
tp6268
a(S'@KianLem'
p6269
I1
tp6270
a(S'@ManitaWelte'
p6271
I1
tp6272
a(S'@hockey_nl'
p6273
I1
tp6274
a(S'@opiniestukken'
p6275
I1
tp6276
a(S'@piestesloeri'
p6277
I1
tp6278
a(S'@orhanalpdundar'
p6279
I1
tp6280
a(S'@sophiemexx'
p6281
I1
tp6282
a(S'@spektorstories'
p6283
I1
tp6284
a(S'@Rode_Kruis_VBD'
p6285
I1
tp6286
a(S'@xYOUSSSSRA'
p6287
I1
tp6288
a(S'@mathijschnell'
p6289
I1
tp6290
a(S'@Tapperijtnoord'
p6291
I1
tp6292
a(S'@uit_breda'
p6293
I1
tp6294
a(S'@Mike_Ackermans'
p6295
I1
tp6296
a(S'@JustArjan'
p6297
I1
tp6298
a(S'@Quincy257'
p6299
I1
tp6300
a(S'@BartElzendoorn'
p6301
I1
tp6302
a(S'@BrandweerQuest'
p6303
I1
tp6304
a(S'@Niels_Bolderman'
p6305
I1
tp6306
a(S'@MilanLuitwieler'
p6307
I1
tp6308
a(S'@DlkyYunus'
p6309
I1
tp6310
a(S'@RotterdamInfo'
p6311
I1
tp6312
a(S'@Maikeeel'
p6313
I1
tp6314
a(S'@iMelissaBieber'
p6315
I1
tp6316
a(S'@PhilipKRA'
p6317
I1
tp6318
a(S'@ftm_nisa'
p6319
I1
tp6320
a(S'@BangaFiets_'
p6321
I1
tp6322
a(S'@Hans_Westerman'
p6323
I1
tp6324
a(S'@bookindj'
p6325
I1
tp6326
a(S'@VickyVetteIND'
p6327
I1
tp6328
a(S'@HulkWTF'
p6329
I1
tp6330
a(S'@koenjoo'
p6331
I1
tp6332
a(S'@Elisabeth218'
p6333
I1
tp6334
a(S'@olteibergen'
p6335
I1
tp6336
a(S'@patrickjfpt'
p6337
I1
tp6338
a(S'@OperacoesRio'
p6339
I1
tp6340
a(S'@EmilyGroen_'
p6341
I1
tp6342
a(S'@manoelakleein'
p6343
I1
tp6344
a(S'@umitkantarcilar'
p6345
I1
tp6346
a(S'@EricDJong'
p6347
I1
tp6348
a(S'@_xShann0n'
p6349
I1
tp6350
a(S'@commonpatriot'
p6351
I1
tp6352
a(S'@Thomasp_96'
p6353
I1
tp6354
a(S'@valentijn1900'
p6355
I1
tp6356
a(S'@NewBabylonDH'
p6357
I1
tp6358
a(S'@__Lisanne__'
p6359
I1
tp6360
a(S'@whitneysingaah'
p6361
I1
tp6362
a(S'@NU_Muziek'
p6363
I1
tp6364
a(S'@OmroepGLD'
p6365
I1
tp6366
a(S'@AndereTijden'
p6367
I1
tp6368
a(S'@marion7266'
p6369
I1
tp6370
a(S'@kelvin_fletcher'
p6371
I1
tp6372
a(S'@VGNbranche'
p6373
I1
tp6374
a(S'@andredonker'
p6375
I1
tp6376
a(S'@Slachtofferhulp'
p6377
I1
tp6378
a(S'@l0ttssz'
p6379
I1
tp6380
a(S'@Brava_NL'
p6381
I1
tp6382
a(S'@veeerrraa'
p6383
I1
tp6384
a(S'@SRP_online'
p6385
I1
tp6386
a(S'@RF_HFC'
p6387
I1
tp6388
a(S'@Vigzovic'
p6389
I1
tp6390
a(S'@FoppersinConcer'
p6391
I1
tp6392
a(S'@SergiSanchezDJ'
p6393
I1
tp6394
a(S'@MiniKoerd_'
p6395
I1
tp6396
a(S'@Popnoord'
p6397
I1
tp6398
a(S'@SafeSexUseDurex'
p6399
I1
tp6400
a(S'@BartJanssen_'
p6401
I1
tp6402
a(S'@tuinendier'
p6403
I1
tp6404
a(S'@witterbrug'
p6405
I1
tp6406
a(S'@WKiffers'
p6407
I1
tp6408
a(S'@vaingl0ry'
p6409
I1
tp6410
a(S'@nuop538'
p6411
I1
tp6412
a(S'@LoveJurrexx'
p6413
I1
tp6414
a(S'@_otuzikidis'
p6415
I1
tp6416
a(S'@FerdiDec'
p6417
I1
tp6418
a(S'@BlueDarknessX'
p6419
I1
tp6420
a(S'@eliSwagJ'
p6421
I1
tp6422
a(S'@twitjako'
p6423
I1
tp6424
a(S'@maxsteenberghe'
p6425
I1
tp6426
a(S'@BeatrixBedankt1'
p6427
I1
tp6428
a(S'@samiaaaax'
p6429
I1
tp6430
a(S'@syifaaul_'
p6431
I1
tp6432
a(S'@SiteDesAddicts'
p6433
I1
tp6434
a(S'@AntiroSieraden'
p6435
I1
tp6436
a(S'@_MaisonBertaux_'
p6437
I1
tp6438
a(S'@sudje1984'
p6439
I1
tp6440
a(S'@hetschaaptweet'
p6441
I1
tp6442
a(S'@verbeekmartijn'
p6443
I1
tp6444
a(S'@cuwork'
p6445
I1
tp6446
a(S'@Moveyourbiz'
p6447
I1
tp6448
a(S'@_RockaFella'
p6449
I1
tp6450
a(S'@bobsgrid'
p6451
I1
tp6452
a(S'@oguzhanorhan1'
p6453
I1
tp6454
a(S'@BOWOLTERINK'
p6455
I1
tp6456
a(S'@jessicamahone_'
p6457
I1
tp6458
a(S'@wa_roosendaal02'
p6459
I1
tp6460
a(S'@Z24nl'
p6461
I1
tp6462
a(S'@HugLittleButera'
p6463
I1
tp6464
a(S'@VVVAmsterdam'
p6465
I1
tp6466
a(S'@Passcalle_'
p6467
I1
tp6468
a(S'@PeterAnshof'
p6469
I1
tp6470
a(S'@_NVBX'
p6471
I1
tp6472
a(S'@Madz_Design'
p6473
I1
tp6474
a(S'@Dulferr'
p6475
I1
tp6476
a(S'@Yisairaaxo'
p6477
I1
tp6478
a(S'@CheyenneAshley_'
p6479
I1
tp6480
a(S'@Rakhi_armband'
p6481
I1
tp6482
a(S'@LiiNAMAZING'
p6483
I1
tp6484
a(S'@ElineOnstenk'
p6485
I1
tp6486
a(S'@DoenKids'
p6487
I1
tp6488
a(S'@miekelvdzande'
p6489
I1
tp6490
a(S'@sanderpotjer'
p6491
I1
tp6492
a(S'@bettapique'
p6493
I1
tp6494
a(S'@bnm_gezondheids'
p6495
I1
tp6496
a(S'@arnhems_meisje'
p6497
I1
tp6498
a(S'@TerbiyesizUkela'
p6499
I1
tp6500
a(S'@kusxvaleriemaas'
p6501
I1
tp6502
a(S'@shaheedcicilia'
p6503
I1
tp6504
a(S'@DannyVerbaan'
p6505
I1
tp6506
a(S'@AnkeVroegman'
p6507
I1
tp6508
a(S'@vvvzwolle'
p6509
I1
tp6510
a(S'@semiddelburg'
p6511
I1
tp6512
a(S'@Fiineszt'
p6513
I1
tp6514
a(S'@TheLegendFB'
p6515
I1
tp6516
a(S'@LiliTimmers'
p6517
I1
tp6518
a(S'@joeksjagers'
p6519
I1
tp6520
a(S'@Zilverline'
p6521
I1
tp6522
a(S'@eddy_terstall'
p6523
I1
tp6524
a(S'@RBeetje_'
p6525
I1
tp6526
a(S'@avadroplove'
p6527
I1
tp6528
a(S'@cmfuentez'
p6529
I1
tp6530
a(S'@villemarseille'
p6531
I1
tp6532
a(S'@reflectie_blauw'
p6533
I1
tp6534
a(S'@andreeburgat'
p6535
I1
tp6536
a(S'@omeroozturk'
p6537
I1
tp6538
a(S'@jesse_marius'
p6539
I1
tp6540
a(S'@OranjeSibboern'
p6541
I1
tp6542
a(S'@BdashL'
p6543
I1
tp6544
a(S'@iamME_LASHAE'
p6545
I1
tp6546
a(S'@BiancadiLollo'
p6547
I1
tp6548
a(S'@s_ardizzone'
p6549
I1
tp6550
a(S'@katyperry'
p6551
I1
tp6552
a(S'@LIVEMYLIFEx_'
p6553
I1
tp6554
a(S'@veluwschevrouw'
p6555
I1
tp6556
a(S'@sonise'
p6557
I1
tp6558
a(S'@ElisaHermanas'
p6559
I1
tp6560
a(S'@GewoonAssowe_'
p6561
I1
tp6562
a(S'@jadorezoe'
p6563
I1
tp6564
a(S'@Staffable'
p6565
I1
tp6566
a(S'@PRINCESS_Hockey'
p6567
I1
tp6568
a(S'@omropfryslan'
p6569
I1
tp6570
a(S'@AleshDrc'
p6571
I1
tp6572
a(S'@ZweedseHamster_'
p6573
I1
tp6574
a(S'@SiemVeeVee'
p6575
I1
tp6576
a(S'@mstravelgypsy'
p6577
I1
tp6578
a(S'@Froukje_mtenv'
p6579
I1
tp6580
a(S'@KhotinskyDordt'
p6581
I1
tp6582
a(S'@Piet_Heyn'
p6583
I1
tp6584
a(S'@Twennnn'
p6585
I1
tp6586
a(S'@JISInfo'
p6587
I1
tp6588
a(S'@maaynasouza'
p6589
I1
tp6590
a(S'@Juliennexx'
p6591
I1
tp6592
a(S'@EdwinVelsink'
p6593
I1
tp6594
a(S'@danonenljobs'
p6595
I1
tp6596
a(S'@ionicasmeets'
p6597
I1
tp6598
a(S'@zeeger'
p6599
I1
tp6600
a(S'@Mikalolbroek'
p6601
I1
tp6602
a(S'@IsmailA__'
p6603
I1
tp6604
a(S'@Vlugtenburg'
p6605
I1
tp6606
a(S'@FZ_Karolia'
p6607
I1
tp6608
a(S'@hitec4ever'
p6609
I1
tp6610
a(S'@kel_newson'
p6611
I1
tp6612
a(S'@Bolidt'
p6613
I1
tp6614
a(S'@lynx234'
p6615
I1
tp6616
a(S'@geraldaaa_x'
p6617
I1
tp6618
a(S'@Ligniet'
p6619
I1
tp6620
a(S'@FastNailArt'
p6621
I1
tp6622
a(S'@ChooseThePlayer'
p6623
I1
tp6624
a(S'@nana_im_'
p6625
I1
tp6626
a(S'@YaraKx'
p6627
I1
tp6628
a(S'@xRiannexHaakx'
p6629
I1
tp6630
a(S'@VULTURE_X'
p6631
I1
tp6632
a(S'@Balgevoel1'
p6633
I1
tp6634
a(S'@MozesATF'
p6635
I1
tp6636
a(S'@xCelest_'
p6637
I1
tp6638
a(S'@MarcoBenou'
p6639
I1
tp6640
a(S'@Jacks_Cafe'
p6641
I1
tp6642
a(S'@disfordazzle'
p6643
I1
tp6644
a(S'@aniekzwemer'
p6645
I1
tp6646
a(S'@hmjvandenbosch'
p6647
I1
tp6648
a(S'@polNieuwmarkt'
p6649
I1
tp6650
a(S'@AngusBlair1'
p6651
I1
tp6652
a(S'@Pinktrotters'
p6653
I1
tp6654
a(S'@AyrtonFRFC'
p6655
I1
tp6656
a(S'@NagelFeiten'
p6657
I1
tp6658
a(S'@nevermiindx'
p6659
I1
tp6660
a(S'@Gideon_kiziYwF'
p6661
I1
tp6662
a(S'@tonboon'
p6663
I1
tp6664
a(S'@Une_folie_douce'
p6665
I1
tp6666
a(S'@Bulutooth23'
p6667
I1
tp6668
a(S'@markvaneeuwen'
p6669
I1
tp6670
a(S'@Trans_en_Geloof'
p6671
I1
tp6672
a(S'@texasvs'
p6673
I1
tp6674
a(S'@aadizz__'
p6675
I1
tp6676
a(S'@CarelBrendel'
p6677
I1
tp6678
a(S'@RONALDiON_'
p6679
I1
tp6680
a(S'@NT2publisher'
p6681
I1
tp6682
a(S'@festivalzand'
p6683
I1
tp6684
a(S'@BITteamWV'
p6685
I1
tp6686
a(S'@DANNICdj'
p6687
I1
tp6688
a(S'@Politiebond'
p6689
I1
tp6690
a(S'@TripFiction'
p6691
I1
tp6692
a(S'@hofstraat1'
p6693
I1
tp6694
a(S'@3FM'
p6695
I1
tp6696
a(S'@hadispiderweb'
p6697
I1
tp6698
a(S'@Porteeroooo'
p6699
I1
tp6700
a(S'@museumsneek'
p6701
I1
tp6702
a(S'@Mike_FMC'
p6703
I1
tp6704
a(S'@CristinaAliks'
p6705
I1
tp6706
a(S'@ahstrijp'
p6707
I1
tp6708
a(S'@TheDopestCars'
p6709
I1
tp6710
a(S'@michaelschack'
p6711
I1
tp6712
a(S'@LocalCatchnl'
p6713
I1
tp6714
a(S'@cerenbangz'
p6715
I1
tp6716
a(S'@RamboAlkmaar'
p6717
I1
tp6718
a(S'@iWenXue'
p6719
I1
tp6720
a(S'@xClaireLuna'
p6721
I1
tp6722
a(S'@Derkius'
p6723
I1
tp6724
a(S'@noon_kelly'
p6725
I1
tp6726
a(S'@BeekmannJunior_'
p6727
I1
tp6728
a(S'@MischaMerle'
p6729
I1
tp6730
a(S'@Looksbysharon'
p6731
I1
tp6732
a(S'@Modernegezegden'
p6733
I1
tp6734
a(S'@RichardLamb'
p6735
I1
tp6736
a(S'@QuincyBoshart'
p6737
I1
tp6738
a(S'@ECommercefacts'
p6739
I1
tp6740
a(S'@_Esra_1D_'
p6741
I1
tp6742
a(S'@024regio'
p6743
I1
tp6744
a(S'@Muiderslot'
p6745
I1
tp6746
a(S'@ChelseyWitha__Y'
p6747
I1
tp6748
a(S'@misionbautizado'
p6749
I1
tp6750
a(S'@_Mounss'
p6751
I1
tp6752
a(S'@ThijsSolidstep'
p6753
I1
tp6754
a(S'@xbodineboelaars'
p6755
I1
tp6756
a(S'@albitagnzalez'
p6757
I1
tp6758
a(S'@frank_tentler'
p6759
I1
tp6760
a(S'@brittalassen'
p6761
I1
tp6762
a(S'@kleuteronderwys'
p6763
I1
tp6764
a(S'@frieslandtips'
p6765
I1
tp6766
a(S'@hotelsteenwijk'
p6767
I1
tp6768
a(S'@peggyy31'
p6769
I1
tp6770
a(S'@Horeca_EH'
p6771
I1
tp6772
a(S'@gijslevelt'
p6773
I1
tp6774
a(S'@PrincessKali26'
p6775
I1
tp6776
a(S'@kim_zeevalk'
p6777
I1
tp6778
a(S'@utrechtdichtbij'
p6779
I1
tp6780
a(S'@AghaJaffar1'
p6781
I1
tp6782
a(S'@AmberLove____'
p6783
I1
tp6784
a(S'@_WistJeAl'
p6785
I1
tp6786
a(S'@isabrinkman'
p6787
I1
tp6788
a(S'@no1san'
p6789
I1
tp6790
a(S'@peovanhoof'
p6791
I1
tp6792
a(S'@hutterdesign'
p6793
I1
tp6794
a(S'@DavevanAken'
p6795
I1
tp6796
a(S'@zoecutiex'
p6797
I1
tp6798
a(S'@Illiberalality'
p6799
I1
tp6800
a(S'@anannaim'
p6801
I1
tp6802
a(S'@ILoveFrizzz'
p6803
I1
tp6804
a(S'@SanneWallis'
p6805
I1
tp6806
a(S'@Zjanette'
p6807
I1
tp6808
a(S'@Cheyennebm'
p6809
I1
tp6810
a(S'@ReneedeJong'
p6811
I1
tp6812
a(S'@_Farii'
p6813
I1
tp6814
a(S'@AmsterdamWatch'
p6815
I1
tp6816
a(S'@gobblefunk'
p6817
I1
tp6818
a(S'@oranje_news'
p6819
I1
tp6820
a(S'@VanHellemondCo'
p6821
I1
tp6822
a(S'@Yourhosting'
p6823
I1
tp6824
a(S'@MarijWestdorp'
p6825
I1
tp6826
a(S'@xoxmaureenn'
p6827
I1
tp6828
a(S'@demi_vw'
p6829
I1
tp6830
a(S'@PiepschuimInfo'
p6831
I1
tp6832
a(S'@headlinesshow'
p6833
I1
tp6834
a(S'@AlArabiya_Eng'
p6835
I1
tp6836
a(S'@IamDylan_'
p6837
I1
tp6838
a(S'@AsicsAmsterdam'
p6839
I1
tp6840
a(S'@KjellNupen'
p6841
I1
tp6842
a(S'@moonlightsharin'
p6843
I1
tp6844
a(S'@sander11'
p6845
I1
tp6846
a(S'@GuildofStudents'
p6847
I1
tp6848
a(S'@VerspeekBanket'
p6849
I1
tp6850
a(S'@GarminNederland'
p6851
I1
tp6852
a(S'@IratiKerplunk'
p6853
I1
tp6854
a(S'@kapsalonpiening'
p6855
I1
tp6856
a(S'@UmaiRY_'
p6857
I1
tp6858
a(S'@DELFT_NL'
p6859
I1
tp6860
a(S'@BatisteNL'
p6861
I1
tp6862
a(S'@Howikk'
p6863
I1
tp6864
a(S'@RobinKalsbeek'
p6865
I1
tp6866
a(S'@niallosaurr'
p6867
I1
tp6868
a(S'@designmaatje'
p6869
I1
tp6870
a(S'@SoccerKit_'
p6871
I1
tp6872
a(S'@Total_Specific'
p6873
I1
tp6874
a(S'@MuHaSli'
p6875
I1
tp6876
a(S'@daankeij'
p6877
I1
tp6878
a(S'@vincenl'
p6879
I1
tp6880
a(S'@shayanda'
p6881
I1
tp6882
a(S'@DaanvanDuin'
p6883
I1
tp6884
a(S'@Noahtjuhhx'
p6885
I1
tp6886
a(S'@Telegraaf'
p6887
I1
tp6888
a(S'@JordayneH'
p6889
I1
tp6890
a(S'@xniikki_'
p6891
I1
tp6892
a(S'@ProostMag'
p6893
I1
tp6894
a(S'@_MichelleAraujo'
p6895
I1
tp6896
a(S'@spreadingthenws'
p6897
I1
tp6898
a(S'@eredivisielive'
p6899
I1
tp6900
a(S'@Annie55917614'
p6901
I1
tp6902
a(S'@OfficialSander_'
p6903
I1
tp6904
a(S'@INLOVEWITH1DJB'
p6905
I1
tp6906
a(S'@Peter_Verhaar'
p6907
I1
tp6908
a(S'@Race_Inc'
p6909
I1
tp6910
a(S'@xGazal'
p6911
I1
tp6912
a(S'@OveralWerken'
p6913
I1
tp6914
a(S'@nat_parkDrenthe'
p6915
I1
tp6916
a(S'@iiAMCHAYY'
p6917
I1
tp6918
a(S'@FlexaNL'
p6919
I1
tp6920
a(S'@D66centrum'
p6921
I1
tp6922
a(S'@celeb_gazou'
p6923
I1
tp6924
a(S'@timbrus'
p6925
I1
tp6926
a(S'@Feddeng'
p6927
I1
tp6928
a(S'@DjSERYLJO'
p6929
I1
tp6930
a(S'@KoningWeb'
p6931
I1
tp6932
a(S'@mokumnieuws'
p6933
I1
tp6934
a(S'@linda_ui'
p6935
I1
tp6936
a(S'@petervdvorst'
p6937
I1
tp6938
a(S'@fysio_maas'
p6939
I1
tp6940
a(S'@Stiekemwiljeook'
p6941
I1
tp6942
a(S'@Amandaa_070_'
p6943
I1
tp6944
a(S'@Avalex_nieuws'
p6945
I1
tp6946
a(S'@AM_Henk'
p6947
I1
tp6948
a(S'@Seraaah_'
p6949
I1
tp6950
a(S'@KarweiEmmeloord'
p6951
I1
tp6952
a(S'@itsSilvan'
p6953
I1
tp6954
a(S'@Kruiswerk'
p6955
I1
tp6956
a(S'@P_Hagenaar'
p6957
I1
tp6958
a(S'@danspubliek'
p6959
I1
tp6960
a(S'@bram_lorijn'
p6961
I1
tp6962
a(S'@arjanelfassed'
p6963
I1
tp6964
a(S'@MansionAmateur'
p6965
I1
tp6966
a(S'@Aimann053'
p6967
I1
tp6968
a(S'@Binkings_'
p6969
I1
tp6970
a(S'@Elmiraelmo'
p6971
I1
tp6972
a(S'@FestinaLenteSF'
p6973
I1
tp6974
a(S'@BrynnaTM'
p6975
I1
tp6976
a(S'@xVEEERLE_'
p6977
I1
tp6978
a(S'@Onbeschikbaar_'
p6979
I1
tp6980
a(S'@KapowKaboom'
p6981
I1
tp6982
a(S'@AkaStephan'
p6983
I1
tp6984
a(S'@jeffranjit'
p6985
I1
tp6986
a(S'@Lieselovexx'
p6987
I1
tp6988
a(S'@NickFarr1991'
p6989
I1
tp6990
a(S'@femkeroosma'
p6991
I1
tp6992
a(S'@HuismanSchoenen'
p6993
I1
tp6994
a(S'@AIfred_Melmak'
p6995
I1
tp6996
a(S'@deeemii__'
p6997
I1
tp6998
a(S'@apjvalk'
p6999
I1
tp7000
a(S'@kjellvz'
p7001
I1
tp7002
a(S'@tpb80'
p7003
I1
tp7004
a(S'@Derciachuma'
p7005
I1
tp7006
a(S'@ChielvL'
p7007
I1
tp7008
a(S'@lessslie_'
p7009
I1
tp7010
a(S'@snalcakar'
p7011
I1
tp7012
a(S'@IrodionZaandam'
p7013
I1
tp7014
a(S'@RaihanaKalif'
p7015
I1
tp7016
a(S'@Wafelshop'
p7017
I1
tp7018
a(S'@celinapfaff'
p7019
I1
tp7020
a(S'@YanitzaRoman'
p7021
I1
tp7022
a(S'@FeestjesFactory'
p7023
I1
tp7024
a(S'@EddieGreaser'
p7025
I1
tp7026
a(S'@dsldejong'
p7027
I1
tp7028
a(S'@ivobeijen'
p7029
I1
tp7030
a(S'@Sylvanabieberrr'
p7031
I1
tp7032
a(S'@lexboon'
p7033
I1
tp7034
a(S'@BJeremyy'
p7035
I1
tp7036
a(S'@sbtvonline'
p7037
I1
tp7038
a(S'@RobsTwitts'
p7039
I1
tp7040
a(S'@kayleesmits1'
p7041
I1
tp7042
a(S'@coksstoffer'
p7043
I1
tp7044
a(S'@Zentoomichel'
p7045
I1
tp7046
a(S'@unicorn_studios'
p7047
I1
tp7048
a(S'@Nannehrtg'
p7049
I1
tp7050
a(S'@DieTolleLeute'
p7051
I1
tp7052
a(S'@EOnl'
p7053
I1
tp7054
a(S'@WA_R_Scholte'
p7055
I1
tp7056
a(S'@MELISADOEIx'
p7057
I1
tp7058
a(S'@loesjenl'
p7059
I1
tp7060
a(S'@doventolk'
p7061
I1
tp7062
a(S'@prive_nieuws'
p7063
I1
tp7064
a(S'@MACIR_DADASI'
p7065
I1
tp7066
a(S'@KevinvSilfhout'
p7067
I1
tp7068
a(S'@ikbengeenneger'
p7069
I1
tp7070
a(S'@beugelvoorsonos'
p7071
I1
tp7072
a(S'@xSevgi_03'
p7073
I1
tp7074
a(S'@GTThomasMusic'
p7075
I1
tp7076
a(S'@La_NuevaEscuela'
p7077
I1
tp7078
a(S'@EhsanJami1985'
p7079
I1
tp7080
a(S'@svh_horeca'
p7081
I1
tp7082
a(S'@PasionNautica'
p7083
I1
tp7084
a(S'@EBdenDulk'
p7085
I1
tp7086
a(S'@RFVweblog'
p7087
I1
tp7088
a(S'@x_xchristine'
p7089
I1
tp7090
a(S'@royvanwijk4'
p7091
I1
tp7092
a(S'@OptelecNL'
p7093
I1
tp7094
a(S'@NorthernWood_'
p7095
I1
tp7096
a(S'@MikeMartens_'
p7097
I1
tp7098
a(S'@BoonAccountsants'
p7099
I1
tp7100
a(S'@UID_'
p7101
I1
tp7102
a(S'@Sienzegt'
p7103
I1
tp7104
a(S'@MaxDirkx'
p7105
I1
tp7106
a(S'@Brandzeichen'
p7107
I1
tp7108
a(S'@ds_Zwolle'
p7109
I1
tp7110
a(S'@yela_g'
p7111
I1
tp7112
a(S'@bjurg47'
p7113
I1
tp7114
a(S'@ValentinaLarrea'
p7115
I1
tp7116
a(S'@ufollowmarielle'
p7117
I1
tp7118
a(S'@SertanAFCA'
p7119
I1
tp7120
a(S'@lrs'
p7121
I1
tp7122
a(S'@GroenVoorEnergi'
p7123
I1
tp7124
a(S'@WinkelvanSinkel'
p7125
I1
tp7126
a(S'@FernndezJesus'
p7127
I1
tp7128
a(S'@Wijenburg'
p7129
I1
tp7130
a(S'@Sidhappens'
p7131
I1
tp7132
a(S'@xMientje3103'
p7133
I1
tp7134
a(S'@TweetsAFCA'
p7135
I1
tp7136
a(S'@tarito_'
p7137
I1
tp7138
a(S'@iloveivy_'
p7139
I1
tp7140
a(S'@WeedStitii'
p7141
I1
tp7142
a(S'@FlorabandNL'
p7143
I1
tp7144
a(S'@scarlethemkes'
p7145
I1
tp7146
a(S'@NMakeveli'
p7147
I1
tp7148
a(S'@Biltstraat'
p7149
I1
tp7150
a(S'@Skyadem66'
p7151
I1
tp7152
a(S'@_Dida_X'
p7153
I1
tp7154
a(S'@flexyfrank'
p7155
I1
tp7156
a(S'@YUGOKiiD_'
p7157
I1
tp7158
a(S'@AlexandraKlaus'
p7159
I1
tp7160
a(S'@flxone'
p7161
I1
tp7162
a(S'@83457_666'
p7163
I1
tp7164
a(S'@SGHWRT'
p7165
I1
tp7166
a(S'@TuplaMourits'
p7167
I1
tp7168
a(S'@puuuck94'
p7169
I1
tp7170
a(S'@Mkrmnolmz'
p7171
I1
tp7172
a(S'@_nuurstuv'
p7173
I1
tp7174
a(S'@FeikeDennis'
p7175
I1
tp7176
a(S'@Fluistering'
p7177
I1
tp7178
a(S'@sarilaciim'
p7179
I1
tp7180
a(S'@jmyeats'
p7181
I1
tp7182
a(S'@FritsWind1'
p7183
I1
tp7184
a(S'@Cition_line'
p7185
I1
tp7186
a(S'@LGBT_Groningen'
p7187
I1
tp7188
a(S'@henkvvoornveld'
p7189
I1
tp7190
a(S'@futbolsalaweb'
p7191
I1
tp7192
a(S'@karolien2303'
p7193
I1
tp7194
a(S'@WOOONwinkels'
p7195
I1
tp7196
a(S'@tribundergi'
p7197
I1
tp7198
a(S'@werken_bij_Nuon'
p7199
I1
tp7200
a(S'@YoeriAlbrecht'
p7201
I1
tp7202
a(S'@fonteinwalibi'
p7203
I1
tp7204
a(S'@wijkagLeidenMid'
p7205
I1
tp7206
a(S'@Huijsertjeeee'
p7207
I1
tp7208
a(S'@cosmetitextpr'
p7209
I1
tp7210
a(S'@towinyourlove'
p7211
I1
tp7212
a(S'@CoffeeCakeKink'
p7213
I1
tp7214
a(S'@svenskdam'
p7215
I1
tp7216
a(S'@DaisyconFinance'
p7217
I1
tp7218
a(S'@7TJC'
p7219
I1
tp7220
a(S'@JesseNabbe'
p7221
I1
tp7222
a(S'@LizannevdGevel'
p7223
I1
tp7224
a(S'@JennlovePhanToM'
p7225
I1
tp7226
a(S'@Jan_V3'
p7227
I1
tp7228
a(S'@PolScheveningen'
p7229
I1
tp7230
a(S'@veluwsebron'
p7231
I1
tp7232
a(S'@Doominiqueex'
p7233
I1
tp7234
a(S'@77EbRuFB1907'
p7235
I1
tp7236
a(S'@davidc7'
p7237
I1
tp7238
a(S'@BBnieuws'
p7239
I1
tp7240
a(S'@nadinemeaklim'
p7241
I1
tp7242
a(S'@laurensboven'
p7243
I1
tp7244
a(S'@Sannevelden'
p7245
I1
tp7246
a(S'@bookuss'
p7247
I1
tp7248
a(S'@marceldevries'
p7249
I1
tp7250
a(S'@AlexHvA'
p7251
I1
tp7252
a(S'@OfficialSann_'
p7253
I1
tp7254
a(S'@xLeonieLin'
p7255
I1
tp7256
a(S'@FCLG_speedy'
p7257
I1
tp7258
a(S'@AldertvdSchaaf'
p7259
I1
tp7260
a(S'@xLenniee'
p7261
I1
tp7262
a(S'@buzzernl'
p7263
I1
tp7264
a(S'@abdessadekj'
p7265
I1
tp7266
a(S'@dillan808'
p7267
I1
tp7268
a(S'@ABVakwerk'
p7269
I1
tp7270
a(S'@clauchristyek'
p7271
I1
tp7272
a(S'@michellebreugel'
p7273
I1
tp7274
a(S'@MolenaarIsabel'
p7275
I1
tp7276
a(S'@liberation_info'
p7277
I1
tp7278
a(S'@karinrus'
p7279
I1
tp7280
a(S'@Hester65'
p7281
I1
tp7282
a(S'@PatGiessen'
p7283
I1
tp7284
a(S'@EdwinvanSas'
p7285
I1
tp7286
a(S'@MoonsOfficial'
p7287
I1
tp7288
a(S'@TheRatedTruth'
p7289
I1
tp7290
a(S'@marjaruigrok'
p7291
I1
tp7292
a(S'@harris_azman'
p7293
I1
tp7294
a(S'@she_sumthn_else'
p7295
I1
tp7296
a(S'@NataschaPhoto'
p7297
I1
tp7298
a(S'@kauwendedropx'
p7299
I1
tp7300
a(S'@Castrooke'
p7301
I1
tp7302
a(S'@aliestel'
p7303
I1
tp7304
a(S'@jackvangelder'
p7305
I1
tp7306
a(S'@energieactueel'
p7307
I1
tp7308
a(S'@TimvanHeumen_'
p7309
I1
tp7310
a(S'@ColorBoostNL'
p7311
I1
tp7312
a(S'@NessNA_'
p7313
I1
tp7314
a(S'@TG_SCARFACE'
p7315
I1
tp7316
a(S'@Rowena_Suuring'
p7317
I1
tp7318
a(S'@WorthAJourney'
p7319
I1
tp7320
a(S'@sarinahhhh'
p7321
I1
tp7322
a(S'@MindMixDance'
p7323
I1
tp7324
a(S'@papohnepudding'
p7325
I1
tp7326
a(S'@co_cenkovat'
p7327
I1
tp7328
a(S'@Skammelsen'
p7329
I1
tp7330
a(S'@siteskateboard'
p7331
I1
tp7332
a(S'@cuijksweekblad'
p7333
I1
tp7334
a(S'@mynameisdaisey'
p7335
I1
tp7336
a(S'@Sportwagenforum'
p7337
I1
tp7338
a(S'@LeidenHum'
p7339
I1
tp7340
a(S'@AnneTonen'
p7341
I1
tp7342
a(S'@maxouderland'
p7343
I1
tp7344
a(S'@wolffjeans'
p7345
I1
tp7346
a(S'@JesseeMedeiross'
p7347
I1
tp7348
a(S'@rivianee_'
p7349
I1
tp7350
a(S'@iheartbiebzss'
p7351
I1
tp7352
a(S'@grotekadoshop'
p7353
I1
tp7354
a(S'@anasss15'
p7355
I1
tp7356
a(S'@FREE_FACTS'
p7357
I1
tp7358
a(S'@jjbuis'
p7359
I1
tp7360
a(S'@CisilTas'
p7361
I1
tp7362
a(S'@WimvanBeusekom'
p7363
I1
tp7364
a(S'@CrazyLoveGirl_'
p7365
I1
tp7366
a(S'@francisco0342'
p7367
I1
tp7368
a(S'@CheynnC'
p7369
I1
tp7370
a(S'@sensieee'
p7371
I1
tp7372
a(S'@humberbeat_Hull'
p7373
I1
tp7374
a(S'@homedecornews'
p7375
I1
tp7376
a(S'@KHN'
p7377
I1
tp7378
a(S'@WestBusiness'
p7379
I1
tp7380
a(S'@joostvangelderr'
p7381
I1
tp7382
a(S'@Hope4SudanBlog'
p7383
I1
tp7384
a(S'@larsdijk1'
p7385
I1
tp7386
a(S'@katy_darnell'
p7387
I1
tp7388
a(S'@helmond_nieuws'
p7389
I1
tp7390
a(S'@BurgemeesterNun'
p7391
I1
tp7392
a(S'@MargreetOtte'
p7393
I1
tp7394
a(S'@Pinky_Ciia'
p7395
I1
tp7396
a(S'@iikbenpieter__'
p7397
I1
tp7398
a(S'@ns__holland13'
p7399
I1
tp7400
a(S'@R4YMOND0223'
p7401
I1
tp7402
a(S'@Milieunet'
p7403
I1
tp7404
a(S'@leonierop'
p7405
I1
tp7406
a(S'@ZusssOriginals'
p7407
I1
tp7408
a(S'@Weeessss'
p7409
I1
tp7410
a(S'@evelinemaat'
p7411
I1
tp7412
a(S'@mirandaa_1995'
p7413
I1
tp7414
a(S'@xmadelief__'
p7415
I1
tp7416
a(S'@iFlu'
p7417
I1
tp7418
a(S'@nienkediepering'
p7419
I1
tp7420
a(S'@Ondertitelblog'
p7421
I1
tp7422
a(S'@xLINDSAAYYY'
p7423
I1
tp7424
a(S'@nu_tech'
p7425
I1
tp7426
a(S'@joordt'
p7427
I1
tp7428
a(S'@PowerUnlimited'
p7429
I1
tp7430
a(S'@DJKrokzz'
p7431
I1
tp7432
a(S'@ImFuckingHarry'
p7433
I1
tp7434
a(S'@KyraaBeebiie_'
p7435
I1
tp7436
a(S'@RockyFitRene'
p7437
I1
tp7438
a(S'@Queensvis'
p7439
I1
tp7440
a(S'@34GUNDEM'
p7441
I1
tp7442
a(S'@fonsillo16'
p7443
I1
tp7444
a(S'@CorrieHeslinga'
p7445
I1
tp7446
a(S'@Mosheb3027'
p7447
I1
tp7448
a(S'@Whoopaa'
p7449
I1
tp7450
a(S'@GGDjongeren'
p7451
I1
tp7452
a(S'@FroukjeJilt'
p7453
I1
tp7454
a(S'@ljsport'
p7455
I1
tp7456
a(S'@15uranga'
p7457
I1
tp7458
a(S'@OranjeOrkest'
p7459
I1
tp7460
a(S'@PJvTiggelen'
p7461
I1
tp7462
a(S'@IRISYARAx'
p7463
I1
tp7464
a(S'@gracieladewindt'
p7465
I1
tp7466
a(S'@jonkersenbroere'
p7467
I1
tp7468
a(S'@sabinevdartel'
p7469
I1
tp7470
a(S'@IvanFdez92'
p7471
I1
tp7472
a(S'@hlatseentle'
p7473
I1
tp7474
a(S'@stolkav'
p7475
I1
tp7476
a(S'@nesselande'
p7477
I1
tp7478
a(S'@av0nsknowles'
p7479
I1
tp7480
a(S'@wimdankelman'
p7481
I1
tp7482
a(S'@Lil_Fizzo7'
p7483
I1
tp7484
a(S'@mallejanleiden'
p7485
I1
tp7486
a(S'@kalishadefretes'
p7487
I1
tp7488
a(S'@BramDenissen'
p7489
I1
tp7490
a(S'@ElliexAnn'
p7491
I1
tp7492
a(S'@Mishkaah001'
p7493
I1
tp7494
a(S'@floor_kleijer'
p7495
I1
tp7496
a(S'@lowlanderlondon2013The'
p7497
I1
tp7498
a(S'@CamelotNL'
p7499
I1
tp7500
a(S'@LOODS51'
p7501
I1
tp7502
a(S'@NSPVBrussels'
p7503
I1
tp7504
a(S'@dutchgamegarden'
p7505
I1
tp7506
a(S'@AatdeJonge'
p7507
I1
tp7508
a(S'@Waternet'
p7509
I1
tp7510
a(S'@KLEiiNEVERDE_'
p7511
I1
tp7512
a(S'@RTLZ'
p7513
I1
tp7514
a(S'@kendra_tuttle'
p7515
I1
tp7516
a(S'@theavonmiracles'
p7517
I1
tp7518
a(S'@_TurkeyNews'
p7519
I1
tp7520
a(S'@Mr_JLJenkins'
p7521
I1
tp7522
a(S'@esmeevanhoekx'
p7523
I1
tp7524
a(S'@Dilanxxx_'
p7525
I1
tp7526
a(S'@B_as_'
p7527
I1
tp7528
a(S'@WottaWodka'
p7529
I1
tp7530
a(S'@LucasMeijs'
p7531
I1
tp7532
a(S'@Game_en_Co'
p7533
I1
tp7534
a(S'@Niekvas'
p7535
I1
tp7536
a(S'@bartbmore'
p7537
I1
tp7538
a(S'@MaxKokkie'
p7539
I1
tp7540
a(S'@HeavJB'
p7541
I1
tp7542
a(S'@JohanFretz'
p7543
I1
tp7544
a(S'@vtenavarrosoler'
p7545
I1
tp7546
a(S'@ericbond67'
p7547
I1
tp7548
a(S'@flevocourant'
p7549
I1
tp7550
a(S'@SaintRPh'
p7551
I1
tp7552
a(S'@iiCandy_xo'
p7553
I1
tp7554
a(S'@qponkortingen2013Q'
p7555
I1
tp7556
a(S'@koningspaar'
p7557
I1
tp7558
a(S'@LouiseLeRoi'
p7559
I1
tp7560
a(S'@annettebirschel'
p7561
I1
tp7562
a(S'@chrisMDNA'
p7563
I1
tp7564
a(S'@HeleenMartin'
p7565
I1
tp7566
a(S'@BananaChikita_'
p7567
I1
tp7568
a(S'@24Kitchen'
p7569
I1
tp7570
a(S'@smanthaax'
p7571
I1
tp7572
a(S'@cafedegrotehout'
p7573
I1
tp7574
a(S'@YELLOWKiD_'
p7575
I1
tp7576
a(S'@riky_76'
p7577
I1
tp7578
a(S'@Divelorie_yog'
p7579
I1
tp7580
a(S'@WPSHortiSystems'
p7581
I1
tp7582
a(S'@raissadewi'
p7583
I1
tp7584
a(S'@xMarokkaaanse'
p7585
I1
tp7586
a(S'@_MK075'
p7587
I1
tp7588
a(S'@NieuwWest'
p7589
I1
tp7590
a(S'@Skwibus'
p7591
I1
tp7592
a(S'@lesdss'
p7593
I1
tp7594
a(S'@politsoutherner'
p7595
I1
tp7596
a(S'@mr_greenzo'
p7597
I1
tp7598
a(S'@Questredactie'
p7599
I1
tp7600
a(S'@Zonnatura'
p7601
I1
tp7602
a(S'@AmyNye93'
p7603
I1
tp7604
a(S'@sligro'
p7605
I1
tp7606
a(S'@vdMheen'
p7607
I1
tp7608
a(S'@gdekloet'
p7609
I1
tp7610
a(S'@lies1'
p7611
I1
tp7612
a(S'@amsterdamlm'
p7613
I1
tp7614
a(S'@LKaller_'
p7615
I1
tp7616
a(S'@xxLatishaaa'
p7617
I1
tp7618
a(S'@AWESOMELLEN'
p7619
I1
tp7620
a(S'@andriyan90'
p7621
I1
tp7622
a(S'@edosatwork'
p7623
I1
tp7624
a(S'@stratforddays'
p7625
I1
tp7626
a(S'@Adios_plants'
p7627
I1
tp7628
a(S'@zrtauran'
p7629
I1
tp7630
a(S'@debatinstituut'
p7631
I1
tp7632
a(S'@xJessssica'
p7633
I1
tp7634
a(S'@LUitdenbogerd'
p7635
I1
tp7636
a(S'@thartvanveghel'
p7637
I1
tp7638
a(S'@xkimsteffens'
p7639
I1
tp7640
a(S'@Youngsta__'
p7641
I1
tp7642
a(S'@hartendames'
p7643
I1
tp7644
a(S'@JvanVLIETgroup'
p7645
I1
tp7646
a(S'@immoangebote_b'
p7647
I1
tp7648
a(S'@RosaSuiker'
p7649
I1
tp7650
a(S'@Carrefour_NOP'
p7651
I1
tp7652
a(S'@drukwerkdeal'
p7653
I1
tp7654
a(S'@MelaniGrifi1'
p7655
I1
tp7656
a(S'@deraaturk'
p7657
I1
tp7658
a(S'@erdna_oaoj'
p7659
I1
tp7660
a(S'@MarioDanneels'
p7661
I1
tp7662
a(S'@alytayy_'
p7663
I1
tp7664
a(S'@Edithmolmans'
p7665
I1
tp7666
a(S'@ZoeeGroot'
p7667
I1
tp7668
a(S'@damasiofor'
p7669
I1
tp7670
a(S'@tjerkzweers'
p7671
I1
tp7672
a(S'@uitburogro'
p7673
I1
tp7674
a(S'@JamesOHP'
p7675
I1
tp7676
a(S'@Janniekeijzer'
p7677
I1
tp7678
a(S'@Uitjesnl'
p7679
I1
tp7680
a(S'@mko71'
p7681
I1
tp7682
a(S'@Jankeerm'
p7683
I1
tp7684
a(S'@andoni_mada'
p7685
I1
tp7686
a(S'@kimberleymcmb'
p7687
I1
tp7688
a(S'@rosannexxxx'
p7689
I1
tp7690
a(S'@JuliaSmid'
p7691
I1
tp7692
a(S'@suckmypjenis'
p7693
I1
tp7694
a(S'@koninginnekind'
p7695
I1
tp7696
a(S'@grootsneek'
p7697
I1
tp7698
a(S'@iiShannxox'
p7699
I1
tp7700
a(S'@Beetjeobsessief'
p7701
I1
tp7702
a(S'@KingOffQueens'
p7703
I1
tp7704
a(S'@Laradio'
p7705
I1
tp7706
a(S'@LaFessaNL'
p7707
I1
tp7708
a(S'@Lexwiet'
p7709
I1
tp7710
a(S'@RekenkamerMA'
p7711
I1
tp7712
a(S'@joelbosma'
p7713
I1
tp7714
a(S'@ViezeSnoopy_'
p7715
I1
tp7716
a(S'@jaimyG94'
p7717
I1
tp7718
a(S'@YefryRicardo'
p7719
I1
tp7720
a(S'@dhrkevin'
p7721
I1
tp7722
a(S'@durieudorine'
p7723
I1
tp7724
a(S'@Info_Groningen1'
p7725
I1
tp7726
a(S'@KoninklijkeBeuk'
p7727
I1
tp7728
a(S'@theycallmeKiTTi'
p7729
I1
tp7730
a(S'@kusjekaro'
p7731
I1
tp7732
a(S'@EbianRammeloo'
p7733
I1
tp7734
a(S'@xZehraa_'
p7735
I1
tp7736
a(S'@CU2030'
p7737
I1
tp7738
a(S'@xMarjorybieber'
p7739
I1
tp7740
a(S'@DaynssLove'
p7741
I1
tp7742
a(S'@Lot_v'
p7743
I1
tp7744
a(S'@AmsterdamGerman'
p7745
I1
tp7746
a(S'@fredendouwe'
p7747
I1
tp7748
a(S'@sblkaraa'
p7749
I1
tp7750
a(S'@golfhorst'
p7751
I1
tp7752
a(S'@Laura_almahano'
p7753
I1
tp7754
a(S'@bol_com_beauty2013Alleen'
p7755
I1
tp7756
a(S'@StellaPachidi'
p7757
I1
tp7758
a(S'@krantvoormeppel'
p7759
I1
tp7760
a(S'@LouisadeJong'
p7761
I1
tp7762
a(S'@_noordholland'
p7763
I1
tp7764
a(S'@middeljansx'
p7765
I1
tp7766
a(S'@LoveTiengemeten'
p7767
I1
tp7768
a(S'@JerryVermanen'
p7769
I1
tp7770
a(S'@xxxxDaantje'
p7771
I1
tp7772
a(S'@pasiee'
p7773
I1
tp7774
a(S'@Noelia_LopezS'
p7775
I1
tp7776
a(S'@FysioSylviaCrum'
p7777
I1
tp7778
a(S'@y0ungskywalker_'
p7779
I1
tp7780
a(S'@Indie_Ams'
p7781
I1
tp7782
a(S'@chelsyuuup'
p7783
I1
tp7784
a(S'@voetbalzonenl'
p7785
I1
tp7786
a(S'@AdeccoTelegraaf'
p7787
I1
tp7788
a(S'@x_NinaF'
p7789
I1
tp7790
a(S'@klinkie57'
p7791
I1
tp7792
a(S'@AndazWS'
p7793
I1
tp7794
a(S'@CelinexMelissa'
p7795
I1
tp7796
a(S'@ovido2'
p7797
I1
tp7798
a(S'@KhansaShahira'
p7799
I1
tp7800
a(S'@leliewijchen'
p7801
I1
tp7802
a(S'@freedelepee'
p7803
I1
tp7804
a(S'@htcsngl1907'
p7805
I1
tp7806
a(S'@esraceydaersoy'
p7807
I1
tp7808
a(S'@SBSfoto'
p7809
I1
tp7810
a(S'@zwolleuitgaan'
p7811
I1
tp7812
a(S'@Esterr_P'
p7813
I1
tp7814
a(S'@bpvanboven'
p7815
I1
tp7816
a(S'@knotjeee'
p7817
I1
tp7818
a(S'@Jasper_deWeerdt'
p7819
I1
tp7820
a(S'@sallandextra'
p7821
I1
tp7822
a(S'@JannetenBarge'
p7823
I1
tp7824
a(S'@spruijtmc'
p7825
I1
tp7826
a(S'@TomBradleyMusic'
p7827
I1
tp7828
a(S'@DebbieJans82'
p7829
I1
tp7830
a(S'@MartijnvdKooij'
p7831
I1
tp7832
a(S'@SintHubertus'
p7833
I1
tp7834
a(S'@gemeentehengelo'
p7835
I1
tp7836
a(S'@BatuhanERSOY3'
p7837
I1
tp7838
a(S'@Partyflock'
p7839
I1
tp7840
a(S'@CHADinAMSTERDAM'
p7841
I1
tp7842
a(S'@tiempodesanjuan'
p7843
I1
tp7844
a(S'@olandaturismo'
p7845
I1
tp7846
a(S'@jody_043'
p7847
I1
tp7848
a(S'@amandakuyper'
p7849
I1
tp7850
a(S'@Alicia_gp92'
p7851
I1
tp7852
a(S'@tulips_holland'
p7853
I1
tp7854
a(S'@loveist0destroy'
p7855
I1
tp7856
a(S'@RolfUhlhorn'
p7857
I1
tp7858
a(S'@RiichelleNoorda'
p7859
I1
tp7860
a(S'@Gem_Maassluis'
p7861
I1
tp7862
a(S'@desterrenparade'
p7863
I1
tp7864
a(S'@kimvanbalen'
p7865
I1
tp7866
a(S'@merixxxmusic'
p7867
I1
tp7868
a(S'@DaannMusic'
p7869
I1
tp7870
a(S'@ecsor'
p7871
I1
tp7872
a(S'@ThePartysquad'
p7873
I1
tp7874
a(S'@jelleschoneveld'
p7875
I1
tp7876
a(S'@OCT_Tilburg'
p7877
I1
tp7878
a(S'@LittleOlieSjeik'
p7879
I1
tp7880
a(S'@Mariithh'
p7881
I1
tp7882
a(S'@AsleyH'
p7883
I1
tp7884
a(S'@houseview'
p7885
I1
tp7886
a(S'@TransandInfo'
p7887
I1
tp7888
a(S'@lydiavanasselt1'
p7889
I1
tp7890
a(S'@Josephine_kdj'
p7891
I1
tp7892
a(S'@EditieNL'
p7893
I1
tp7894
a(S'@xTrustNobody_'
p7895
I1
tp7896
a(S'@Carglass_NL'
p7897
I1
tp7898
a(S'@onbehandigbaar'
p7899
I1
tp7900
a(S'@pindanglicious'
p7901
I1
tp7902
a(S'@JusraJushie'
p7903
I1
tp7904
a(S'@SidneyVollmer'
p7905
I1
tp7906
a(S'@GijsScheeringa'
p7907
I1
tp7908
a(S'@XNANCYYxZ'
p7909
I1
tp7910
a(S'@_xsempedro'
p7911
I1
tp7912
a(S'@morethanloveJB'
p7913
I1
tp7914
a(S'@E_line_Media'
p7915
I1
tp7916
a(S'@_SKOL'
p7917
I1
tp7918
a(S'@BiebSudWest'
p7919
I1
tp7920
a(S'@renevanm'
p7921
I1
tp7922
a(S'@Justin_Yepez'
p7923
I1
tp7924
a(S'@DexMFN'
p7925
I1
tp7926
a(S'@selinerozet'
p7927
I1
tp7928
a(S'@MJTT_'
p7929
I1
tp7930
a(S'@twassenberg'
p7931
I1
tp7932
a(S'@VolvoRutten'
p7933
I1
tp7934
a(S'@yoyopets'
p7935
I1
tp7936
a(S'@AngeliaLaady'
p7937
I1
tp7938
a(S'@mirantihirsch'
p7939
I1
tp7940
a(S'@IvanRod170812'
p7941
I1
tp7942
a(S'@MichielAdR'
p7943
I1
tp7944
a(S'@Infographics4u'
p7945
I1
tp7946
a(S'@iloveyouxeline'
p7947
I1
tp7948
a(S'@NL_FOP'
p7949
I1
tp7950
a(S'@Haramusic'
p7951
I1
tp7952
a(S'@zaarlicious'
p7953
I1
tp7954
a(S'@wensholl'
p7955
I1
tp7956
a(S'@seanbaxter'
p7957
I1
tp7958
a(S'@iiloveGMM'
p7959
I1
tp7960
a(S'@lacapital'
p7961
I1
tp7962
a(S'@HEeksii'
p7963
I1
tp7964
a(S'@unutmazer34'
p7965
I1
tp7966
a(S'@AmbulanceZorg'
p7967
I1
tp7968
a(S'@showkee'
p7969
I1
tp7970
a(S'@BeautyNieuwsNL'
p7971
I1
tp7972
a(S'@CY_KOC'
p7973
I1
tp7974
a(S'@formularuben'
p7975
I1
tp7976
a(S'@sophiemanshande'
p7977
I1
tp7978
a(S'@samuel07021999'
p7979
I1
tp7980
a(S'@laram'
p7981
I1
tp7982
a(S'@CourtneyxBTR'
p7983
I1
tp7984
a(S'@WilvanBalen1'
p7985
I1
tp7986
a(S'@zeemantextiel'
p7987
I1
tp7988
a(S'@JudyFrijling'
p7989
I1
tp7990
a(S'@jadeee_dv'
p7991
I1
tp7992
a(S'@verseoogst'
p7993
I1
tp7994
a(S'@BNDeStemOhout'
p7995
I1
tp7996
a(S'@_OmarrC'
p7997
I1
tp7998
a(S'@restdeboekanier'
p7999
I1
tp8000
a(S'@Benno_F'
p8001
I1
tp8002
a(S'@Fitness_Dance'
p8003
I1
tp8004
a(S'@030Uitgaan'
p8005
I1
tp8006
a(S'@JantineVeenhof'
p8007
I1
tp8008
a(S'@ThunderWand'
p8009
I1
tp8010
a(S'@WimvandeCamp'
p8011
I1
tp8012
a(S'@DieMarokkaanse_'
p8013
I1
tp8014
a(S'@Michonnet'
p8015
I1
tp8016
a(S'@bartjo'
p8017
I1
tp8018
a(S'@xfranniee'
p8019
I1
tp8020
a(S'@koningshuis'
p8021
I1
tp8022
a(S'@gl3r'
p8023
I1
tp8024
a(S'@BachGarol'
p8025
I1
tp8026
a(S'@VCWijhe'
p8027
I1
tp8028
a(S'@ArnovanColumnz'
p8029
I1
tp8030
a(S'@BijdeVF'
p8031
I1
tp8032
a(S'@MellisaKnowless'
p8033
I1
tp8034
a(S'@Miloubonke'
p8035
I1
tp8036
a(S'@LiTTLESWAGG_'
p8037
I1
tp8038
a(S'@gembunnik'
p8039
I1
tp8040
a(S'@WijkAg_StMGno'
p8041
I1
tp8042
a(S'@DopeKidd0_'
p8043
I1
tp8044
a(S'@PGWelman'
p8045
I1
tp8046
a(S'@MINieuwenhuis'
p8047
I1
tp8048
a(S'@VULawAcademy'
p8049
I1
tp8050
a(S'@GraftDeRijpNL'
p8051
I1
tp8052
a(S'@Weermeisje'
p8053
I1
tp8054
a(S'@dahuddx'
p8055
I1
tp8056
a(S'@YoussraSays'
p8057
I1
tp8058
a(S'@Luukros'
p8059
I1
tp8060
a(S'@Giro555'
p8061
I1
tp8062
a(S'@XLaniiixx'
p8063
I1
tp8064
a(S'@RonHameleers'
p8065
I1
tp8066
a(S'@gerpal_antik'
p8067
I1
tp8068
a(S'@a_amaia'
p8069
I1
tp8070
a(S'@MaxDaniel_'
p8071
I1
tp8072
a(S'@xSD_'
p8073
I1
tp8074
a(S'@SexFactsOfLife'
p8075
I1
tp8076
a(S'@Benthe_X_'
p8077
I1
tp8078
a(S'@SupremeYC_'
p8079
I1
tp8080
a(S'@ThereseBouwman'
p8081
I1
tp8082
a(S'@E_Ss3'
p8083
I1
tp8084
a(S'@robba_robs'
p8085
I1
tp8086
a(S'@Be_Rad_86'
p8087
I1
tp8088
a(S'@SocatotsSEStaff'
p8089
I1
tp8090
a(S'@ASHER_Cruze'
p8091
I1
tp8092
a(S'@xfenneverbeet'
p8093
I1
tp8094
a(S'@Rickie313'
p8095
I1
tp8096
a(S'@twittiexmandy'
p8097
I1
tp8098
a(S'@gizem_ylmaaz'
p8099
I1
tp8100
a(S'@vastgoednieuws'
p8101
I1
tp8102
a(S'@HetWitteHuisOlt'
p8103
I1
tp8104
a(S'@KidsproofAfoort'
p8105
I1
tp8106
a(S'@leolewin'
p8107
I1
tp8108
a(S'@ErikWessels'
p8109
I1
tp8110
a(S'@InstagramFeet'
p8111
I1
tp8112
a(S'@xprinsessRoos'
p8113
I1
tp8114
a(S'@Maryyyyse'
p8115
I1
tp8116
a(S'@Politie_Tilburg'
p8117
I1
tp8118
a(S'@DeSteegzangers'
p8119
I1
tp8120
a(S'@Verhoefun'
p8121
I1
tp8122
a(S'@artquakenl'
p8123
I1
tp8124
a(S'@zackz14'
p8125
I1
tp8126
a(S'@holtylingerie'
p8127
I1
tp8128
a(S'@Ineedit_Meppel'
p8129
I1
tp8130
a(S'@EbiereGomero'
p8131
I1
tp8132
a(S'@NaarNijmegen'
p8133
I1
tp8134
a(S'@fuckangee'
p8135
I1
tp8136
a(S'@partytentendisc'
p8137
I1
tp8138
a(S'@Nederland3'
p8139
I1
tp8140
a(S'@Ludowikus_virus'
p8141
I1
tp8142
a(S'@DorpsraadRossum'
p8143
I1
tp8144
a(S'@macharoesink'
p8145
I1
tp8146
a(S'@Lara_Youpi'
p8147
I1
tp8148
a(S'@DaysiDaayss_'
p8149
I1
tp8150
a(S'@rickdejong92'
p8151
I1
tp8152
a(S'@_mamama'
p8153
I1
tp8154
a(S'@Timbiels'
p8155
I1
tp8156
a(S'@rabredewold'
p8157
I1
tp8158
a(S'@JorgePozasGarci'
p8159
I1
tp8160
a(S'@iiLikeNiisha__'
p8161
I1
tp8162
a(S'@Straatblog'
p8163
I1
tp8164
a(S'@Ilhamfaresss'
p8165
I1
tp8166
a(S'@namedalyssa'
p8167
I1
tp8168
a(S'@JulianArzam'
p8169
I1
tp8170
a(S'@TIM__DIJKSTRA'
p8171
I1
tp8172
a(S'@FatinxSerena'
p8173
I1
tp8174
a(S'@PatriciaAveiroS'
p8175
I1
tp8176
a(S'@JannekeG_'
p8177
I1
tp8178
a(S'@wol'
p8179
I1
tp8180
a(S'@SanderHenstra'
p8181
I1
tp8182
a(S'@Lea_Lea20'
p8183
I1
tp8184
a(S'@Churroscatering'
p8185
I1
tp8186
a(S'@_RidvanRtm'
p8187
I1
tp8188
a(S'@nonken'
p8189
I1
tp8190
a(S'@xmievrouw'
p8191
I1
tp8192
a(S'@TommyThomassen'
p8193
I1
tp8194
a(S'@ZambraAgency'
p8195
I1
tp8196
a(S'@Denkjewel'
p8197
I1
tp8198
a(S'@Camfilsolutions'
p8199
I1
tp8200
a(S'@ictberichten'
p8201
I1
tp8202
a(S'@cyclingonlineNL'
p8203
I1
tp8204
a(S'@NicoScholtens'
p8205
I1
tp8206
a(S'@Lill_Dragonn'
p8207
I1
tp8208
a(S'@Joop_nl'
p8209
I1
tp8210
a(S'@xjustmelanie_'
p8211
I1
tp8212
a(S'@Smartsave'
p8213
I1
tp8214
a(S'@ZoeeFaiith'
p8215
I1
tp8216
a(S'@Derrk_'
p8217
I1
tp8218
a(S'@BolletjeAarde'
p8219
I1
tp8220
a(S'@republiektrien'
p8221
I1
tp8222
a(S'@CondeMarina'
p8223
I1
tp8224
a(S'@KNRMSchier'
p8225
I1
tp8226
a(S'@ninasMIJO'
p8227
I1
tp8228
a(S'@dylanz64'
p8229
I1
tp8230
a(S'@TerryGuisler_'
p8231
I1
tp8232
a(S'@LukeeGriffin'
p8233
I1
tp8234
a(S'@Elisabethhartje'
p8235
I1
tp8236
a(S'@CecielMarlijnn'
p8237
I1
tp8238
a(S'@Shalieenx'
p8239
I1
tp8240
a(S'@ayu_agitasari'
p8241
I1
tp8242
a(S'@FRabdelhak1908'
p8243
I1
tp8244
a(S'@MPAmsterdam'
p8245
I1
tp8246
a(S'@marjodewinter'
p8247
I1
tp8248
a(S'@SonjaMaskerade'
p8249
I1
tp8250
a(S'@CanFenerbahChe'
p8251
I1
tp8252
a(S'@MaryBamber'
p8253
I1
tp8254
a(S'@WerkXYZHR'
p8255
I1
tp8256
a(S'@Pol_053centrum'
p8257
I1
tp8258
a(S'@sjoerddegroot'
p8259
I1
tp8260
a(S'@OmRFaRKORuC'
p8261
I1
tp8262
a(S'@rockblogdotnl'
p8263
I1
tp8264
a(S'@CalebBreter'
p8265
I1
tp8266
a(S'@vhd_akn'
p8267
I1
tp8268
a(S'@ajaxprimeurs'
p8269
I1
tp8270
a(S'@JeroenPaul'
p8271
I1
tp8272
a(S'@LANGEFREAK'
p8273
I1
tp8274
a(S'@LVallerie_x'
p8275
I1
tp8276
a(S'@Feestlust'
p8277
I1
tp8278
a(S'@Verity_vunit'
p8279
I1
tp8280
a(S'@moppenbe'
p8281
I1
tp8282
a(S'@janvandenheuvel'
p8283
I1
tp8284
a.