(dp0
S'demotiverend'
p1
(F0.0
F1.0
tp2
sS'gezwind'
p3
(F0.25
F0.0
tp4
sS'vrezen'
p5
(F0.0
F0.25
tp6
sS'bangeschijter'
p7
(F0.0
F1.0
tp8
sS'jeremi\xc3\xabren'
p9
(F0.0
F0.5
tp10
sS'lanterfant'
p11
(F0.0
F1.0
tp12
sS'ovatie'
p13
(F0.5
F0.0
tp14
sS'flauwte'
p15
(F0.0
F0.5
tp16
sS'modaal'
p17
(F0.25
F0.0
tp18
sS'verpletteren'
p19
(F0.0
F0.5
tp20
sS'protest'
p21
(F0.0
F0.25
tp22
sS'zelfvoldaan'
p23
(F0.0
F0.5
tp24
sS'slimmigheidje'
p25
(F0.25
F0.0
tp26
sS'ontzeggen'
p27
(F0.0
F0.5
tp28
sS'fout'
p29
(F0.0
F1.0
tp30
sS'verwerven'
p31
(F0.25
F0.0
tp32
sS'cremeren'
p33
(F0.0
F0.25
tp34
sS'wrijving'
p35
(F0.0
F0.25
tp36
sS'bemoeiziek'
p37
(F0.0
F1.0
tp38
sS'realiseren'
p39
(F0.25
F0.0
tp40
sS'bevrijding'
p41
(F1.0
F0.0
tp42
sS'creatief'
p43
(F1.0
F0.0
tp44
sS'obsceen'
p45
(F0.0
F1.0
tp46
sS'speels'
p47
(F1.0
F0.0
tp48
sS'defensief'
p49
(F0.0
F0.25
tp50
sS'accuratesse'
p51
(F0.5
F0.0
tp52
sS'plezier'
p53
(F1.0
F0.0
tp54
sS'verknipt'
p55
(F0.0
F0.75
tp56
sS'schik'
p57
(F0.5
F0.0
tp58
sS'agitator'
p59
(F0.0
F0.5
tp60
sS'opdonder'
p61
(F0.0
F0.75
tp62
sS'bescherming'
p63
(F0.5
F0.0
tp64
sS'bloedvergieten'
p65
(F0.0
F1.0
tp66
sS'vermoorden'
p67
(F0.0
F0.75
tp68
sS'stuf'
p69
(F0.0
F0.25
tp70
sS'paria'
p71
(F0.0
F1.0
tp72
sS'vunzig'
p73
(F0.0
F1.0
tp74
sS'schadelijk'
p75
(F0.0
F0.75
tp76
sS'klerikalisme'
p77
(F0.0
F0.25
tp78
sS'volgroeid'
p79
(F0.25
F0.0
tp80
sS'beheersbaar'
p81
(F0.5
F0.0
tp82
sS'balsturig'
p83
(F0.0
F0.5
tp84
sS'uiterst'
p85
(F0.25
F0.0
tp86
sS'goorlap'
p87
(F0.0
F1.0
tp88
sS'inflexibel'
p89
(F0.0
F0.75
tp90
sS'aanbidden'
p91
(F0.75
F0.0
tp92
sS'flapdrol'
p93
(F0.0
F1.0
tp94
sS'denderen'
p95
(F0.0
F0.75
tp96
sS'harmonieus'
p97
(F1.0
F0.0
tp98
sS'hecht'
p99
(F0.5
F0.0
tp100
sS'stoornis'
p101
(F0.0
F0.5
tp102
sS'doodvermoeid'
p103
(F0.0
F0.5
tp104
sS'hopelijk'
p105
(F0.25
F0.0
tp106
sS'manie'
p107
(F0.0
F0.75
tp108
sS'krompraten'
p109
(F0.0
F0.5
tp110
sS'verwaand'
p111
(F0.0
F1.0
tp112
sS'aanbidder'
p113
(F0.75
F0.0
tp114
sS'getalenteerd'
p115
(F1.0
F0.0
tp116
sS'bedompt'
p117
(F0.0
F0.75
tp118
sS'schoon'
p119
(F0.75
F0.0
tp120
sS'altru\xc3\xafstisch'
p121
(F0.5
F0.0
tp122
sS'motivering'
p123
(F0.25
F0.0
tp124
sS'ingreep'
p125
(F0.0
F0.25
tp126
sS'folteren'
p127
(F0.0
F0.5
tp128
sS'mamma-amputatie'
p129
(F0.0
F0.5
tp130
sS'pluche'
p131
(F0.0
F0.25
tp132
sS'overstroming'
p133
(F0.0
F0.5
tp134
sS'zwavellucht'
p135
(F0.0
F0.25
tp136
sS'straatschender'
p137
(F0.0
F0.5
tp138
sS'onoordeelkundig'
p139
(F0.0
F1.0
tp140
sS'smoken'
p141
(F0.0
F0.25
tp142
sS'ongepastheid'
p143
(F0.0
F1.0
tp144
sS'stevig'
p145
(F0.75
F0.0
tp146
sS'dierenbeschermer'
p147
(F0.25
F0.0
tp148
sS'durfal'
p149
(F0.5
F0.0
tp150
sS'impulsief'
p151
(F0.25
F0.25
tp152
sS'instemming'
p153
(F0.25
F0.0
tp154
sS'vermaning'
p155
(F0.0
F0.25
tp156
sS'bedreigen'
p157
(F0.0
F0.5
tp158
sS'smoezelen'
p159
(F0.0
F1.0
tp160
sS'uitstekend'
p161
(F1.0
F0.0
tp162
sS'aanzetten'
p163
(F0.0
F0.25
tp164
sS'kniesoor'
p165
(F0.0
F1.0
tp166
sS'verhelderend'
p167
(F1.0
F0.0
tp168
sS'geldafpersing'
p169
(F0.0
F0.75
tp170
sS'middelmatig'
p171
(F0.0
F0.5
tp172
sS'bekakt'
p173
(F0.0
F1.0
tp174
sS'achteruit'
p175
(F0.0
F0.25
tp176
sS'consistent'
p177
(F0.75
F0.0
tp178
sS'schreeuwer'
p179
(F0.0
F1.0
tp180
sS'ontsteld'
p181
(F0.0
F1.0
tp182
sS'elegant'
p183
(F1.0
F0.0
tp184
sS'kanarieneuker'
p185
(F0.0
F1.0
tp186
sS'schuldig'
p187
(F0.0
F1.0
tp188
sS'primitief'
p189
(F0.0
F0.5
tp190
sS'schokken'
p191
(F0.0
F0.25
tp192
sS'godslastering'
p193
(F0.0
F0.75
tp194
sS'zwerfkat'
p195
(F0.0
F0.25
tp196
sS'trotseren'
p197
(F1.0
F0.0
tp198
sS'makkelijk'
p199
(F0.5
F0.0
tp200
sS'monster'
p201
(F0.0
F0.75
tp202
sS'filister'
p203
(F0.0
F0.5
tp204
sS'verzoening'
p205
(F0.75
F0.0
tp206
sS'oprichter'
p207
(F0.25
F0.0
tp208
sS'stijfhoofdig'
p209
(F0.0
F1.0
tp210
sS'malheur'
p211
(F0.0
F1.0
tp212
sS'verrassing'
p213
(F0.5
F0.0
tp214
sS'pijn'
p215
(F0.0
F0.5
tp216
sS'heldin'
p217
(F1.0
F0.0
tp218
sS'kut'
p219
(F0.0
F1.0
tp220
sS'kus'
p221
(F0.5
F0.0
tp222
sS'toereiken'
p223
(F0.25
F0.0
tp224
sS'animeren'
p225
(F0.25
F0.0
tp226
sS'corruptie'
p227
(F0.0
F1.0
tp228
sS'kul'
p229
(F0.0
F1.0
tp230
sS'geesteszieke'
p231
(F0.0
F1.0
tp232
sS'Apocalyps'
p233
(F0.0
F0.5
tp234
sS'confusie'
p235
(F0.0
F0.25
tp236
sS'geloven'
p237
(F0.25
F0.0
tp238
sS'volmaakt'
p239
(F1.0
F0.0
tp240
sS'onwelgevallig'
p241
(F0.0
F0.75
tp242
sS'zielenpoot'
p243
(F0.0
F0.75
tp244
sS'meedoen'
p245
(F0.25
F0.0
tp246
sS'hallucinatie'
p247
(F0.0
F0.25
tp248
sS'ballingschap'
p249
(F0.0
F0.25
tp250
sS'afnokken'
p251
(F0.0
F0.5
tp252
sS'dwingelandij'
p253
(F0.0
F0.5
tp254
sS'zenuwtrekje'
p255
(F0.0
F0.5
tp256
sS'krankzinnigverklaring'
p257
(F0.0
F0.5
tp258
sS'dwingen'
p259
(F0.0
F0.5
tp260
sS'applaudisseren'
p261
(F0.25
F0.0
tp262
sS'werkkracht'
p263
(F0.25
F0.0
tp264
sS'correctheid'
p265
(F0.5
F0.0
tp266
sS'overtreder'
p267
(F0.0
F1.0
tp268
sS'doden'
p269
(F0.0
F0.5
tp270
sS'deviatie'
p271
(F0.0
F0.25
tp272
sS'vereenvoudigen'
p273
(F0.25
F0.0
tp274
sS'flessen'
p275
(F0.0
F0.25
tp276
sS'mes'
p277
(F0.0
F0.25
tp278
sS'ondienstig'
p279
(F0.0
F1.0
tp280
sS'medelander'
p281
(F0.25
F0.0
tp282
sS'whizzkid'
p283
(F0.5
F0.0
tp284
sS'koppigheid'
p285
(F0.0
F1.0
tp286
sS'onderbreking'
p287
(F0.0
F0.25
tp288
sS'bezopen'
p289
(F0.0
F1.0
tp290
sS'neveneffect'
p291
(F0.0
F0.25
tp292
sS'gewiekstheid'
p293
(F0.5
F0.0
tp294
sS'wreken'
p295
(F0.0
F0.5
tp296
sS'terroriseren'
p297
(F0.0
F1.0
tp298
sS'kornuit'
p299
(F0.25
F0.0
tp300
sS'verlegen'
p301
(F0.0
F0.25
tp302
sS'lullig'
p303
(F0.0
F1.0
tp304
sS'afgeleefd'
p305
(F0.0
F1.0
tp306
sS'waanwijs'
p307
(F0.0
F0.75
tp308
sS'vrijbuiteren'
p309
(F0.25
F0.25
tp310
sS'vergiffenis'
p311
(F0.5
F0.0
tp312
sS'verheffen'
p313
(F0.25
F0.0
tp314
sS'controverse'
p315
(F0.0
F0.5
tp316
sS'onappetijtelijk'
p317
(F0.0
F0.5
tp318
sS'mentor'
p319
(F0.25
F0.0
tp320
sS'onrendabel'
p321
(F0.0
F1.0
tp322
sS'relevantie'
p323
(F0.25
F0.0
tp324
sS'strijdig'
p325
(F0.5
F0.25
tp326
sS'anarchist'
p327
(F0.0
F0.25
tp328
sS'goedlopend'
p329
(F1.0
F0.0
tp330
sS'have-nots'
p331
(F0.0
F0.5
tp332
sS'improductief'
p333
(F0.0
F1.0
tp334
sS'succes'
p335
(F1.0
F0.0
tp336
sS'verontrust'
p337
(F0.0
F0.5
tp338
sS'welluidend'
p339
(F0.75
F0.0
tp340
sS'wedijveren'
p341
(F0.0
F0.25
tp342
sS'heiligheid'
p343
(F0.75
F0.0
tp344
sS'bolsjewist'
p345
(F0.0
F0.25
tp346
sS'schuw'
p347
(F0.0
F0.75
tp348
sS'levendigheid'
p349
(F0.5
F0.0
tp350
sS'horendol'
p351
(F0.0
F1.0
tp352
sS'zwijneboel'
p353
(F0.0
F1.0
tp354
sS'jeugdig'
p355
(F0.75
F0.0
tp356
sS'onmeedogend'
p357
(F0.0
F1.0
tp358
sS'repareren'
p359
(F0.5
F0.0
tp360
sS'kleven'
p361
(F0.0
F0.25
tp362
sS'opschepper'
p363
(F0.0
F1.0
tp364
sS'woordenwisseling'
p365
(F0.0
F0.5
tp366
sS'ontzagwekkend'
p367
(F0.5
F0.5
tp368
sS'arbeiderswoning'
p369
(F0.0
F0.25
tp370
sS'dissonant'
p371
(F0.0
F0.25
tp372
sS'herriemaker'
p373
(F0.0
F1.0
tp374
sS'bejaarde'
p375
(F0.0
F0.25
tp376
sS'manipulatie'
p377
(F0.0
F1.0
tp378
sS'berekenbaar'
p379
(F0.75
F0.0
tp380
sS'schimmig'
p381
(F0.0
F1.0
tp382
sS'afstraffing'
p383
(F0.0
F0.25
tp384
sS'vaalwit'
p385
(F0.0
F0.75
tp386
sS'spel'
p387
(F0.25
F0.0
tp388
sS'insult'
p389
(F0.0
F0.5
tp390
sS'superpositie'
p391
(F0.5
F0.0
tp392
sS'scheet'
p393
(F0.0
F0.25
tp394
sS'lijp'
p395
(F0.0
F0.25
tp396
sS'spil'
p397
(F0.25
F0.0
tp398
sS'mispunt'
p399
(F0.0
F0.75
tp400
sS'aanstichter'
p401
(F0.0
F0.75
tp402
sS'synergie'
p403
(F0.25
F0.0
tp404
sS'kleintje'
p405
(F0.0
F0.25
tp406
sS'arme'
p407
(F0.0
F0.25
tp408
sS'doordouwer'
p409
(F0.5
F0.5
tp410
sS'ongemakkelijk'
p411
(F0.0
F1.0
tp412
sS'rouwdouwer'
p413
(F0.0
F0.75
tp414
sS'vallen'
p415
(F0.0
F0.25
tp416
sS'ezelskop'
p417
(F0.0
F0.75
tp418
sS'bedaard'
p419
(F0.75
F0.0
tp420
sS'waterig'
p421
(F0.0
F0.25
tp422
sS'dikdoener'
p423
(F0.0
F0.5
tp424
sS'lawaaimaker'
p425
(F0.0
F1.0
tp426
sS'schande'
p427
(F0.0
F1.0
tp428
sS'onttrekken'
p429
(F0.0
F0.25
tp430
sS'rouwdouw'
p431
(F0.0
F0.75
tp432
sS'schijtlijster'
p433
(F0.0
F1.0
tp434
sS'dego\xc3\xbbtant'
p435
(F0.0
F0.5
tp436
sS'liefde'
p437
(F0.75
F0.0
tp438
sS'nek-aan-nekrace'
p439
(F0.25
F0.0
tp440
sS'doorwerken'
p441
(F0.25
F0.0
tp442
sS'lazarus'
p443
(F0.0
F0.25
tp444
sS'oomzegger'
p445
(F0.0
F0.25
tp446
sS'kokend'
p447
(F0.0
F0.25
tp448
sS'excellent'
p449
(F1.0
F0.0
tp450
sS'restauratie'
p451
(F0.25
F0.0
tp452
sS'zanggod'
p453
(F0.25
F0.0
tp454
sS'kreupel'
p455
(F0.0
F1.0
tp456
sS'buitenbeentje'
p457
(F0.0
F0.75
tp458
sS'entertainen'
p459
(F0.25
F0.0
tp460
sS'dode'
p461
(F0.0
F0.5
tp462
sS'naarstig'
p463
(F0.0
F0.25
tp464
sS'drietonner'
p465
(F0.0
F0.25
tp466
sS'gewrichtspijn'
p467
(F0.0
F0.25
tp468
sS'somber'
p469
(F0.0
F1.0
tp470
sS'excessief'
p471
(F0.0
F0.25
tp472
sS'hebzucht'
p473
(F0.0
F0.75
tp474
sS'brombeer'
p475
(F0.0
F0.75
tp476
sS'erg'
p477
(F0.0
F0.75
tp478
sS'beschaving'
p479
(F0.25
F0.0
tp480
sS'onvrede'
p481
(F0.0
F1.0
tp482
sS'doorsukkelen'
p483
(F0.0
F0.5
tp484
sS'mager'
p485
(F0.0
F0.5
tp486
sS'glorie'
p487
(F1.0
F0.0
tp488
sS'luguber'
p489
(F0.0
F0.5
tp490
sS'nodeloos'
p491
(F0.0
F0.75
tp492
sS'onvakkundig'
p493
(F0.0
F0.75
tp494
sS'materialisme'
p495
(F0.0
F0.25
tp496
sS'deserteur'
p497
(F0.0
F0.25
tp498
sS'troep'
p499
(F0.0
F0.75
tp500
sS'onderlegd'
p501
(F0.75
F0.0
tp502
sS'aantrekken'
p503
(F0.25
F0.0
tp504
sS'schoft'
p505
(F0.0
F1.0
tp506
sS'pisnijdig'
p507
(F0.0
F1.0
tp508
sS'laakbaar'
p509
(F0.0
F0.5
tp510
sS'hopsen'
p511
(F0.25
F0.0
tp512
sS'vers'
p513
(F0.25
F0.0
tp514
sS'degradatie'
p515
(F0.0
F1.0
tp516
sS'zelfmoordenaar'
p517
(F0.0
F0.5
tp518
sS'overbodig'
p519
(F0.0
F1.0
tp520
sS'uitbreidingsmogelijkheid'
p521
(F0.25
F0.0
tp522
sS'onbegeerd'
p523
(F0.0
F0.75
tp524
sS'onervaren'
p525
(F0.0
F0.75
tp526
sS'tweeslachtig'
p527
(F0.0
F0.25
tp528
sS'allight'
p529
(F1.0
F0.0
tp530
sS'vitaal'
p531
(F1.0
F0.0
tp532
sS'reuze'
p533
(F0.5
F0.0
tp534
sS'eenzaam'
p535
(F0.0
F0.75
tp536
sS'solidariteit'
p537
(F0.75
F0.0
tp538
sS'stichten'
p539
(F0.0
F0.25
tp540
sS'overgelukkig'
p541
(F0.25
F0.5
tp542
sS'goedkeuren'
p543
(F0.25
F0.0
tp544
sS'verdagen'
p545
(F0.0
F0.25
tp546
sS'farce'
p547
(F0.0
F0.5
tp548
sS'eng'
p549
(F0.0
F0.75
tp550
sS'gapen'
p551
(F0.0
F0.25
tp552
sS'bombarderen'
p553
(F0.0
F0.25
tp554
sS'fraai'
p555
(F1.0
F0.0
tp556
sS'smoren'
p557
(F0.0
F0.5
tp558
sS'jubel'
p559
(F0.25
F0.0
tp560
sS'derdehands'
p561
(F0.0
F0.5
tp562
sS'aanschaffen'
p563
(F0.25
F0.0
tp564
sS'schlemiel'
p565
(F0.0
F1.0
tp566
sS'wervelend'
p567
(F1.0
F0.0
tp568
sS'hersenschim'
p569
(F0.0
F0.5
tp570
sS'fantastisch'
p571
(F1.0
F0.0
tp572
sS'doorslaan'
p573
(F0.0
F0.5
tp574
sS'hoofdpijn'
p575
(F0.0
F0.5
tp576
sS'krentenweger'
p577
(F0.0
F0.75
tp578
sS'stichter'
p579
(F0.25
F0.0
tp580
sS'complicatie'
p581
(F0.0
F0.5
tp582
sS'pokkenlijer'
p583
(F0.0
F1.0
tp584
sS'beauty'
p585
(F1.0
F0.0
tp586
sS'hond'
p587
(F0.0
F0.25
tp588
sS'koddig'
p589
(F0.25
F0.0
tp590
sS'kampioen'
p591
(F0.5
F0.0
tp592
sS'goedkeuring'
p593
(F0.25
F0.0
tp594
sS'verziekt'
p595
(F0.0
F1.0
tp596
sS'gluiper'
p597
(F0.0
F0.5
tp598
sS'top'
p599
(F1.0
F0.0
tp600
sS'schieten'
p601
(F0.0
F0.5
tp602
sS'verval'
p603
(F0.0
F1.0
tp604
sS'groothartig'
p605
(F1.0
F0.0
tp606
sS'overdone'
p607
(F0.0
F1.0
tp608
sS'herrijzen'
p609
(F0.25
F0.0
tp610
sS'schandelijk'
p611
(F0.0
F0.5
tp612
sS'misfit'
p613
(F0.0
F0.75
tp614
sS'balorig'
p615
(F0.0
F1.0
tp616
sS'aimabel'
p617
(F0.75
F0.0
tp618
sS'ongemak'
p619
(F0.0
F1.0
tp620
sS'ingezetene'
p621
(F0.0
F0.25
tp622
sS'criticus'
p623
(F0.0
F0.25
tp624
sS'wellevendheid'
p625
(F0.75
F0.0
tp626
sS'uiteindelijk'
p627
(F0.25
F0.0
tp628
sS'CFK'
p629
(F0.0
F0.25
tp630
sS'duivelachtig'
p631
(F0.0
F0.5
tp632
sS'terreur'
p633
(F0.0
F1.0
tp634
sS'frutselaar'
p635
(F0.0
F0.75
tp636
sS'wetenschapper'
p637
(F0.25
F0.0
tp638
sS'walglijk'
p639
(F0.0
F1.0
tp640
sS'afkletsen'
p641
(F0.0
F0.5
tp642
sS'schrander'
p643
(F0.0
F0.25
tp644
sS'moedig'
p645
(F1.0
F0.0
tp646
sS'hartverwarmend'
p647
(F1.0
F0.0
tp648
sS'waarheidsgetrouw'
p649
(F1.0
F0.0
tp650
sS'koekebakker'
p651
(F0.0
F0.25
tp652
sS'ijzersterk'
p653
(F1.0
F0.0
tp654
sS'schade'
p655
(F0.0
F0.75
tp656
sS'verbluffend'
p657
(F1.0
F0.0
tp658
sS'tevergeefs'
p659
(F0.0
F0.75
tp660
sS'neuskegel'
p661
(F0.0
F0.25
tp662
sS'onenigheid'
p663
(F0.0
F0.25
tp664
sS'trouw'
p665
(F0.25
F0.0
tp666
sS'onmin'
p667
(F0.0
F0.5
tp668
sS'rijkdom'
p669
(F0.75
F0.0
tp670
sS'kampen'
p671
(F0.0
F0.75
tp672
sS'onguur'
p673
(F0.0
F0.5
tp674
sS'dodelijk'
p675
(F0.0
F1.0
tp676
sS'straatloper'
p677
(F0.0
F0.25
tp678
sS'bloemengeur'
p679
(F0.25
F0.0
tp680
sS'pijnloos'
p681
(F0.5
F0.0
tp682
sS'verfraaien'
p683
(F0.75
F0.0
tp684
sS'schertsvertoning'
p685
(F0.0
F1.0
tp686
sS'evenwaardig'
p687
(F0.5
F0.0
tp688
sS'roerigheid'
p689
(F0.0
F0.75
tp690
sS'komediant'
p691
(F0.75
F0.0
tp692
sS'landerig'
p693
(F0.0
F0.5
tp694
sS'weldoener'
p695
(F1.0
F0.0
tp696
sS'affiniteit'
p697
(F0.5
F0.0
tp698
sS'capitulatie'
p699
(F0.0
F0.25
tp700
sS'onvergelijkbaar'
p701
(F0.25
F0.0
tp702
sS'schone'
p703
(F1.0
F0.0
tp704
sS'depressief'
p705
(F0.0
F0.75
tp706
sS'tramp'
p707
(F0.0
F0.25
tp708
sS'complex'
p709
(F0.0
F0.25
tp710
sS'okido'
p711
(F1.0
F0.0
tp712
sS'geflipt'
p713
(F0.0
F0.75
tp714
sS'vruchtbaar'
p715
(F0.5
F0.0
tp716
sS'snauwen'
p717
(F0.0
F1.0
tp718
sS'weigerachtig'
p719
(F0.0
F0.75
tp720
sS'vindingrijk'
p721
(F0.75
F0.0
tp722
sS'exotisch'
p723
(F0.75
F0.0
tp724
sS'bangerd'
p725
(F0.0
F0.75
tp726
sS'wegpoetsen'
p727
(F0.0
F0.25
tp728
sS'oubollig'
p729
(F0.0
F0.75
tp730
sS'antagonisme'
p731
(F0.0
F0.5
tp732
sS'afschuwwekkend'
p733
(F0.0
F1.0
tp734
sS'gevangenis'
p735
(F0.0
F0.5
tp736
sS'rouwen'
p737
(F0.0
F0.5
tp738
sS'dubieus'
p739
(F0.0
F1.0
tp740
sS'pretentieus'
p741
(F0.0
F0.25
tp742
sS'bang'
p743
(F0.0
F0.75
tp744
sS'mishandeling'
p745
(F0.0
F1.0
tp746
sS'parano\xc3\xafde'
p747
(F0.0
F1.0
tp748
sS'glimlachen'
p749
(F0.75
F0.0
tp750
sS'Odysseus'
p751
(F0.25
F0.0
tp752
sS'omissie'
p753
(F0.0
F0.5
tp754
sS'bekritiseren'
p755
(F0.0
F0.25
tp756
sS'etnocentrisme'
p757
(F0.0
F0.25
tp758
sS'grijnzen'
p759
(F0.25
F0.0
tp760
sS'beperking'
p761
(F0.0
F0.75
tp762
sS'onbeleefd'
p763
(F0.0
F1.0
tp764
sS'bons'
p765
(F0.0
F0.25
tp766
sS'klaagzang'
p767
(F0.0
F0.75
tp768
sS'wonderdokter'
p769
(F0.0
F0.25
tp770
sS'behendig'
p771
(F1.0
F0.0
tp772
sS'meevoelen'
p773
(F0.25
F0.0
tp774
sS'onwerkbaar'
p775
(F0.0
F1.0
tp776
sS'streber'
p777
(F0.0
F0.5
tp778
sS'weerstand'
p779
(F0.0
F0.25
tp780
sS'onhoffelijk'
p781
(F0.0
F0.5
tp782
sS'afgoderij'
p783
(F0.0
F0.25
tp784
sS'gruwzaam'
p785
(F0.0
F1.0
tp786
sS'verblijden'
p787
(F0.5
F0.0
tp788
sS'brouwen'
p789
(F0.0
F0.25
tp790
sS'jandoedel'
p791
(F0.0
F0.75
tp792
sS'ongeriefelijk'
p793
(F0.0
F0.5
tp794
sS'onverzettelijk'
p795
(F0.0
F0.5
tp796
sS'bedruktheid'
p797
(F0.0
F0.5
tp798
sS'furieus'
p799
(F0.0
F0.75
tp800
sS'verzorger'
p801
(F0.25
F0.0
tp802
sS'hotemetotem'
p803
(F0.0
F0.25
tp804
sS'dommigheid'
p805
(F0.0
F1.0
tp806
sS'isolement'
p807
(F0.0
F0.25
tp808
sS'uitsluiting'
p809
(F0.0
F0.25
tp810
sS'argeloos'
p811
(F0.0
F0.75
tp812
sS'kernwapenverdrag'
p813
(F0.0
F0.25
tp814
sS'verstrooid'
p815
(F0.0
F0.5
tp816
sS'rooklucht'
p817
(F0.0
F0.5
tp818
sS'janboel'
p819
(F0.0
F0.75
tp820
sS'waanvoorstelling'
p821
(F0.0
F1.0
tp822
sS'rotsvast'
p823
(F0.25
F0.0
tp824
sS'zotternij'
p825
(F0.0
F1.0
tp826
sS'kanjer'
p827
(F1.0
F0.0
tp828
sS'ontrafelen'
p829
(F0.75
F0.0
tp830
sS'onmogelijk'
p831
(F0.0
F1.0
tp832
sS'hangen'
p833
(F0.0
F0.25
tp834
sS'prulleboel'
p835
(F0.0
F0.5
tp836
sS'aansporen'
p837
(F0.25
F0.0
tp838
sS'mistrouwig'
p839
(F0.0
F0.75
tp840
sS'legioen'
p841
(F0.0
F0.25
tp842
sS'vuur'
p843
(F0.25
F0.0
tp844
sS'varken'
p845
(F0.0
F0.5
tp846
sS'vluchten'
p847
(F0.0
F0.25
tp848
sS'gedaagde'
p849
(F0.0
F0.5
tp850
sS'karwei'
p851
(F0.25
F0.0
tp852
sS'superieur'
p853
(F0.75
F0.0
tp854
sS'draagkrachtig'
p855
(F0.75
F0.0
tp856
sS'verontreiniging'
p857
(F0.0
F0.5
tp858
sS'somberheid'
p859
(F0.0
F1.0
tp860
sS'welwillendheid'
p861
(F1.0
F0.0
tp862
sS'baatzuchtig'
p863
(F0.0
F0.75
tp864
sS'saboteur'
p865
(F0.0
F0.5
tp866
sS'raken'
p867
(F0.0
F0.25
tp868
sS'verdediging'
p869
(F0.25
F0.0
tp870
sS'sluiten'
p871
(F0.0
F0.25
tp872
sS'godverlaten'
p873
(F0.0
F1.0
tp874
sS'veto'
p875
(F0.0
F0.25
tp876
sS'foefje'
p877
(F0.5
F0.0
tp878
sS'waandenkbeeld'
p879
(F0.0
F1.0
tp880
sS'aanranding'
p881
(F0.0
F0.75
tp882
sS'liefelijkheid'
p883
(F1.0
F0.0
tp884
sS'quoteren'
p885
(F0.0
F0.25
tp886
sS'schuldeiser'
p887
(F0.0
F0.5
tp888
sS'aanbaksel'
p889
(F0.0
F0.5
tp890
sS'cynisme'
p891
(F0.0
F0.75
tp892
sS'afzakken'
p893
(F0.0
F0.25
tp894
sS'pleurislijder'
p895
(F0.0
F1.0
tp896
sS'villen'
p897
(F0.0
F0.5
tp898
sS'stimuleren'
p899
(F0.75
F0.0
tp900
sS'zwak'
p901
(F0.0
F0.75
tp902
sS'beheersing'
p903
(F0.25
F0.0
tp904
sS'piepen'
p905
(F0.0
F0.25
tp906
sS'ontbinding'
p907
(F0.0
F0.25
tp908
sS'maniak'
p909
(F0.0
F1.0
tp910
sS'co\xc3\xb6pereren'
p911
(F0.5
F0.0
tp912
sS'schappelijk'
p913
(F1.0
F0.0
tp914
sS'rectificatie'
p915
(F0.0
F0.25
tp916
sS'ginnegappen'
p917
(F0.25
F0.0
tp918
sS'mopperen'
p919
(F0.0
F1.0
tp920
sS'emotioneel'
p921
(F0.0
F0.25
tp922
sS'heisa'
p923
(F0.0
F1.0
tp924
sS'pragmaticus'
p925
(F0.25
F0.0
tp926
sS'veinzaard'
p927
(F0.0
F1.0
tp928
sS'teef'
p929
(F0.0
F1.0
tp930
sS'mopperkont'
p931
(F0.0
F1.0
tp932
sS'devotie'
p933
(F0.25
F0.0
tp934
sS'vurig'
p935
(F0.75
F0.0
tp936
sS'verheldering'
p937
(F0.25
F0.0
tp938
sS'lummel'
p939
(F0.0
F1.0
tp940
sS'parkeerbon'
p941
(F0.0
F0.25
tp942
sS'inventief'
p943
(F0.75
F0.0
tp944
sS'kwijnend'
p945
(F0.0
F0.75
tp946
sS'uitbraak'
p947
(F0.0
F0.5
tp948
sS'tamtam'
p949
(F0.0
F0.25
tp950
sS'titelhouder'
p951
(F0.5
F0.0
tp952
sS'razen'
p953
(F0.0
F0.75
tp954
sS'hoon'
p955
(F0.0
F0.5
tp956
sS'baanbrekend'
p957
(F1.0
F0.0
tp958
sS'kerker'
p959
(F0.0
F0.25
tp960
sS'duurzaamheid'
p961
(F1.0
F0.0
tp962
sS'effectief'
p963
(F1.0
F0.0
tp964
sS'smoezen'
p965
(F0.0
F0.75
tp966
sS'mededogen'
p967
(F0.5
F0.0
tp968
sS'veinzer'
p969
(F0.0
F0.5
tp970
sS'onschuldig'
p971
(F0.75
F0.0
tp972
sS'lamzalig'
p973
(F0.0
F1.0
tp974
sS'veer'
p975
(F0.25
F0.0
tp976
sS'ziektegeschiedenis'
p977
(F0.0
F0.25
tp978
sS'mazzel'
p979
(F1.0
F0.0
tp980
sS'koel'
p981
(F0.0
F0.5
tp982
sS'revival'
p983
(F0.25
F0.0
tp984
sS'aanstoker'
p985
(F0.0
F0.5
tp986
sS'welgevallig'
p987
(F0.75
F0.0
tp988
sS'ontwikkelingssamenwerking'
p989
(F0.25
F0.0
tp990
sS'duidelijk'
p991
(F0.25
F0.0
tp992
sS'pleura'
p993
(F0.0
F0.25
tp994
sS'zwijnezooi'
p995
(F0.0
F1.0
tp996
sS'vergroten'
p997
(F0.25
F0.0
tp998
sS'overlevingspensioen'
p999
(F0.0
F0.25
tp1000
sS'misdragen'
p1001
(F0.0
F1.0
tp1002
sS'meester'
p1003
(F0.25
F0.0
tp1004
sS'lucratief'
p1005
(F0.5
F0.25
tp1006
sS'ongeluksvogel'
p1007
(F0.0
F0.75
tp1008
sS'inferno'
p1009
(F0.0
F0.5
tp1010
sS'nood'
p1011
(F0.0
F0.5
tp1012
sS'bitter'
p1013
(F0.0
F1.0
tp1014
sS'grimlachen'
p1015
(F0.25
F0.5
tp1016
sS'overwinning'
p1017
(F1.0
F0.0
tp1018
sS'opgejaagdheid'
p1019
(F0.0
F0.75
tp1020
sS'beminnen'
p1021
(F0.25
F0.0
tp1022
sS'committent'
p1023
(F0.25
F0.0
tp1024
sS'persen'
p1025
(F0.0
F0.25
tp1026
sS'g\xc3\xaanant'
p1027
(F0.0
F1.0
tp1028
sS'vervallen'
p1029
(F0.0
F0.5
tp1030
sS'onnauwkeurig'
p1031
(F0.0
F1.0
tp1032
sS'stinkerd'
p1033
(F0.0
F1.0
tp1034
sS'enigheid'
p1035
(F0.25
F0.0
tp1036
sS'bedwelmen'
p1037
(F0.0
F0.75
tp1038
sS'inexact'
p1039
(F0.0
F0.5
tp1040
sS'verstoteling'
p1041
(F0.0
F0.5
tp1042
sS'ongepast'
p1043
(F0.0
F1.0
tp1044
sS'nirvana'
p1045
(F0.75
F0.0
tp1046
sS'halfwijs'
p1047
(F0.0
F0.75
tp1048
sS'terugvorderen'
p1049
(F0.0
F0.25
tp1050
sS'minpunt'
p1051
(F0.0
F1.0
tp1052
sS'invalide'
p1053
(F0.0
F0.25
tp1054
sS'veelzijdigheid'
p1055
(F1.0
F0.0
tp1056
sS'animeermeisje'
p1057
(F0.0
F0.5
tp1058
sS'kunnen'
p1059
(F0.25
F0.0
tp1060
sS'onpraktisch'
p1061
(F0.0
F0.75
tp1062
sS'argumenteren'
p1063
(F0.25
F0.0
tp1064
sS'trek'
p1065
(F0.0
F0.25
tp1066
sS'galant'
p1067
(F1.0
F0.0
tp1068
sS'discontinu\xc3\xafteit'
p1069
(F0.0
F0.5
tp1070
sS'schreeuwen'
p1071
(F0.0
F0.25
tp1072
sS'overwerkt'
p1073
(F0.0
F1.0
tp1074
sS'etter'
p1075
(F0.0
F1.0
tp1076
sS'favorabel'
p1077
(F0.75
F0.0
tp1078
sS'eerbiedig'
p1079
(F0.5
F0.0
tp1080
sS'bedanken'
p1081
(F0.25
F0.0
tp1082
sS'mijnopruimingsdienst'
p1083
(F0.0
F0.25
tp1084
sS'luistervink'
p1085
(F0.0
F0.25
tp1086
sS'gegarandeerd'
p1087
(F0.25
F0.0
tp1088
sS'tornen'
p1089
(F0.0
F0.25
tp1090
sS'effici\xc3\xabnt'
p1091
(F1.0
F0.0
tp1092
sS'hondenkenner'
p1093
(F0.25
F0.0
tp1094
sS'gefortuneerd'
p1095
(F1.0
F0.0
tp1096
sS'goddeloos'
p1097
(F0.0
F0.5
tp1098
sS'beschonkene'
p1099
(F0.0
F0.75
tp1100
sS'afkeuren'
p1101
(F0.0
F1.0
tp1102
sS'roerig'
p1103
(F0.0
F0.5
tp1104
sS'ontwikkeling'
p1105
(F0.5
F0.0
tp1106
sS'onverlaat'
p1107
(F0.0
F0.5
tp1108
sS'donker'
p1109
(F0.0
F0.25
tp1110
sS'gekte'
p1111
(F0.0
F0.75
tp1112
sS'modern'
p1113
(F0.5
F0.0
tp1114
sS'schadevergoeding'
p1115
(F0.0
F0.25
tp1116
sS'verfraaiing'
p1117
(F1.0
F0.0
tp1118
sS'briljant'
p1119
(F1.0
F0.0
tp1120
sS'koesteren'
p1121
(F0.75
F0.0
tp1122
sS'haantje'
p1123
(F0.0
F0.25
tp1124
sS'gesmeerd'
p1125
(F0.5
F0.0
tp1126
sS'rat'
p1127
(F0.0
F0.75
tp1128
sS'dooievisjesvreter'
p1129
(F0.0
F0.5
tp1130
sS'bezieling'
p1131
(F0.5
F0.0
tp1132
sS'rap'
p1133
(F0.25
F0.0
tp1134
sS'luchtig'
p1135
(F0.25
F0.0
tp1136
sS'obscuur'
p1137
(F0.25
F0.25
tp1138
sS'verschoppeling'
p1139
(F0.0
F0.75
tp1140
sS'gepassioneerd'
p1141
(F1.0
F0.0
tp1142
sS'smart'
p1143
(F0.0
F0.75
tp1144
sS'souplesse'
p1145
(F0.5
F0.0
tp1146
sS'gespecialiseerd'
p1147
(F0.75
F0.0
tp1148
sS'bombarie'
p1149
(F0.0
F1.0
tp1150
sS'sprietig'
p1151
(F0.0
F0.75
tp1152
sS'alibi'
p1153
(F0.0
F0.25
tp1154
sS'pochen'
p1155
(F0.0
F1.0
tp1156
sS'droplul'
p1157
(F0.0
F1.0
tp1158
sS'angstig'
p1159
(F0.0
F1.0
tp1160
sS'oplepelen'
p1161
(F0.0
F0.25
tp1162
sS'elegance'
p1163
(F1.0
F0.0
tp1164
sS'geldwolf'
p1165
(F0.0
F1.0
tp1166
sS'onverenigbaarheid'
p1167
(F0.0
F0.25
tp1168
sS'onverhoopt'
p1169
(F0.0
F1.0
tp1170
sS'verdedigbaar'
p1171
(F0.75
F0.0
tp1172
sS'beschuldiging'
p1173
(F0.0
F0.5
tp1174
sS'paljas'
p1175
(F0.0
F0.75
tp1176
sS'omsluieren'
p1177
(F0.0
F0.25
tp1178
sS'gestoorde'
p1179
(F0.0
F1.0
tp1180
sS'ineenstorting'
p1181
(F0.0
F0.25
tp1182
sS'zwierbol'
p1183
(F0.25
F0.5
tp1184
sS'nieuwjaarsbijeenkomst'
p1185
(F0.25
F0.0
tp1186
sS'zegetocht'
p1187
(F0.25
F0.0
tp1188
sS'hokjesmentaliteit'
p1189
(F0.0
F0.5
tp1190
sS'opvallend'
p1191
(F0.5
F0.0
tp1192
sS'object'
p1193
(F0.0
F0.25
tp1194
sS'recht'
p1195
(F0.25
F0.0
tp1196
sS'failliet'
p1197
(F0.0
F0.5
tp1198
sS'verdeeldheid'
p1199
(F0.0
F0.75
tp1200
sS'persoonlijkheid'
p1201
(F0.25
F0.0
tp1202
sS'liberalisme'
p1203
(F0.25
F0.0
tp1204
sS'kortzichtigheid'
p1205
(F0.0
F1.0
tp1206
sS'ergerlijk'
p1207
(F0.0
F1.0
tp1208
sS'excuus'
p1209
(F0.0
F0.25
tp1210
sS'viezerik'
p1211
(F0.0
F1.0
tp1212
sS'pressie'
p1213
(F0.0
F0.25
tp1214
sS'trots'
p1215
(F0.75
F0.0
tp1216
sS'commotie'
p1217
(F0.0
F0.25
tp1218
sS'toewijding'
p1219
(F1.0
F0.0
tp1220
sS'moraliseren'
p1221
(F0.0
F0.25
tp1222
sS'instaan'
p1223
(F0.5
F0.0
tp1224
sS'bobo'
p1225
(F0.0
F0.25
tp1226
sS'dummy'
p1227
(F0.0
F0.75
tp1228
sS'ambtenaar'
p1229
(F0.0
F0.25
tp1230
sS'doven'
p1231
(F0.25
F0.0
tp1232
sS'kruimig'
p1233
(F0.25
F0.0
tp1234
sS'dol'
p1235
(F0.25
F0.0
tp1236
sS'dom'
p1237
(F0.0
F1.0
tp1238
sS'platliggen'
p1239
(F0.0
F0.25
tp1240
sS'gedetineerde'
p1241
(F0.0
F0.25
tp1242
sS'verdraagzaamheid'
p1243
(F0.25
F0.0
tp1244
sS'extremisme'
p1245
(F0.0
F1.0
tp1246
sS'levensgenieter'
p1247
(F1.0
F0.0
tp1248
sS'leraar'
p1249
(F0.25
F0.0
tp1250
sS'ongelovig'
p1251
(F0.0
F0.75
tp1252
sS'lacune'
p1253
(F0.0
F0.25
tp1254
sS'redelijk'
p1255
(F1.0
F0.0
tp1256
sS'eeuwigheid'
p1257
(F0.25
F0.0
tp1258
sS'zinken'
p1259
(F0.0
F0.25
tp1260
sS'dor'
p1261
(F0.0
F0.75
tp1262
sS'knullig'
p1263
(F0.0
F1.0
tp1264
sS'tegen'
p1265
(F0.0
F1.0
tp1266
sS'degelijkheid'
p1267
(F0.5
F0.0
tp1268
sS'leutig'
p1269
(F0.0
F0.5
tp1270
sS'middelmatigheid'
p1271
(F0.0
F0.75
tp1272
sS'strijdigheid'
p1273
(F0.25
F0.25
tp1274
sS'beladen'
p1275
(F0.0
F0.25
tp1276
sS'volmaaktheid'
p1277
(F0.5
F0.0
tp1278
sS'compliceren'
p1279
(F0.0
F0.75
tp1280
sS'gelukkige'
p1281
(F1.0
F0.0
tp1282
sS'gemotiveerd'
p1283
(F0.5
F0.0
tp1284
sS'vulgair'
p1285
(F0.0
F1.0
tp1286
sS'kleun'
p1287
(F0.0
F0.25
tp1288
sS'verheven'
p1289
(F1.0
F0.0
tp1290
sS'belangrijk'
p1291
(F0.5
F0.0
tp1292
sS'getrouwheid'
p1293
(F0.5
F0.0
tp1294
sS'gewaad'
p1295
(F0.0
F0.25
tp1296
sS'begiftigen'
p1297
(F0.0
F0.5
tp1298
sS'schenken'
p1299
(F0.25
F0.0
tp1300
sS'vospaard'
p1301
(F0.25
F0.0
tp1302
sS'urnenveld'
p1303
(F0.0
F0.25
tp1304
sS'nadeel'
p1305
(F0.0
F0.5
tp1306
sS'vrijmetselaar'
p1307
(F0.5
F0.25
tp1308
sS'boerentrien'
p1309
(F0.0
F0.5
tp1310
sS'predispositie'
p1311
(F0.0
F0.25
tp1312
sS'mietje'
p1313
(F0.0
F1.0
tp1314
sS'onweerlegbaar'
p1315
(F0.75
F0.0
tp1316
sS'onderworpen'
p1317
(F0.0
F0.75
tp1318
sS'herenigen'
p1319
(F0.5
F0.0
tp1320
sS'kalf'
p1321
(F0.0
F0.25
tp1322
sS'waardig'
p1323
(F1.0
F0.0
tp1324
sS'verlokkelijk'
p1325
(F0.75
F0.0
tp1326
sS'rotzak'
p1327
(F0.0
F1.0
tp1328
sS'nijdig'
p1329
(F0.0
F0.75
tp1330
sS'origineel'
p1331
(F0.75
F0.0
tp1332
sS'bedelaar'
p1333
(F0.0
F0.5
tp1334
sS'huilerig'
p1335
(F0.0
F1.0
tp1336
sS'rampspoedig'
p1337
(F0.0
F0.75
tp1338
sS'bikkelhard'
p1339
(F0.75
F0.0
tp1340
sS'illusoir'
p1341
(F0.0
F0.5
tp1342
sS'onweerstaanbaar'
p1343
(F1.0
F0.0
tp1344
sS'ijlen'
p1345
(F0.0
F0.5
tp1346
sS'voorzien'
p1347
(F0.25
F0.0
tp1348
sS'stoot'
p1349
(F0.25
F0.25
tp1350
sS'overrompelen'
p1351
(F0.0
F0.25
tp1352
sS'opinie'
p1353
(F0.25
F0.0
tp1354
sS'moed'
p1355
(F1.0
F0.0
tp1356
sS'kiezelzuur'
p1357
(F0.0
F0.25
tp1358
sS'bloed'
p1359
(F0.0
F0.25
tp1360
sS'fluim'
p1361
(F0.0
F0.5
tp1362
sS'aanhankelijk'
p1363
(F0.25
F0.25
tp1364
sS'schromen'
p1365
(F0.0
F0.25
tp1366
sS'gekwalificeerd'
p1367
(F0.5
F0.0
tp1368
sS'onoverkomelijk'
p1369
(F0.0
F0.5
tp1370
sS'geheel'
p1371
(F0.25
F0.0
tp1372
sS'flierefluiter'
p1373
(F0.0
F0.25
tp1374
sS'onrustzaaier'
p1375
(F0.0
F1.0
tp1376
sS'deprimerend'
p1377
(F0.0
F1.0
tp1378
sS'nalatig'
p1379
(F0.0
F0.75
tp1380
sS'bezwaren'
p1381
(F0.0
F0.25
tp1382
sS'ultimatum'
p1383
(F0.25
F0.25
tp1384
sS'voorspoedig'
p1385
(F1.0
F0.0
tp1386
sS'populair'
p1387
(F0.75
F0.0
tp1388
sS'zwijn'
p1389
(F0.0
F0.75
tp1390
sS'ongezond'
p1391
(F0.0
F1.0
tp1392
sS'gedistingeerd'
p1393
(F0.25
F0.0
tp1394
sS'haarklover'
p1395
(F0.0
F0.5
tp1396
sS'heiligdom'
p1397
(F0.5
F0.0
tp1398
sS'bar'
p1399
(F0.0
F0.25
tp1400
sS'gezwam'
p1401
(F0.0
F1.0
tp1402
sS'uitvoerbaar'
p1403
(F1.0
F0.0
tp1404
sS'idiotie'
p1405
(F0.0
F1.0
tp1406
sS'levenskrachtig'
p1407
(F1.0
F0.0
tp1408
sS'respectvol'
p1409
(F1.0
F0.0
tp1410
sS'ongerechtvaardigd'
p1411
(F0.0
F1.0
tp1412
sS'fascineren'
p1413
(F1.0
F0.0
tp1414
sS'soepel'
p1415
(F1.0
F0.0
tp1416
sS'werkschuw'
p1417
(F0.0
F0.5
tp1418
sS'dagdroom'
p1419
(F0.25
F0.0
tp1420
sS'egoist'
p1421
(F0.0
F1.0
tp1422
sS'ban'
p1423
(F0.0
F0.5
tp1424
sS'weetniet'
p1425
(F0.0
F0.5
tp1426
sS'geurig'
p1427
(F0.75
F0.0
tp1428
sS'keukenprinses'
p1429
(F0.5
F0.0
tp1430
sS'hoffelijk'
p1431
(F1.0
F0.0
tp1432
sS'vlot'
p1433
(F0.25
F0.0
tp1434
sS'vervreemding'
p1435
(F0.0
F0.5
tp1436
sS'kwekken'
p1437
(F0.0
F1.0
tp1438
sS'pummel'
p1439
(F0.0
F1.0
tp1440
sS'broederlijkheid'
p1441
(F0.25
F0.0
tp1442
sS'casseren'
p1443
(F0.0
F0.25
tp1444
sS'verworvenheid'
p1445
(F0.25
F0.0
tp1446
sS'miosis'
p1447
(F0.0
F0.25
tp1448
sS'zondigheid'
p1449
(F0.0
F0.75
tp1450
sS'volbrenging'
p1451
(F1.0
F0.0
tp1452
sS'subsidioloog'
p1453
(F0.0
F0.25
tp1454
sS'allure'
p1455
(F0.5
F0.0
tp1456
sS'makker'
p1457
(F1.0
F0.0
tp1458
sS'sloeber'
p1459
(F0.0
F0.75
tp1460
sS'weduwe'
p1461
(F0.0
F0.25
tp1462
sS'corrupt'
p1463
(F0.0
F1.0
tp1464
sS'stelen'
p1465
(F0.0
F0.75
tp1466
sS'bizar'
p1467
(F0.0
F0.5
tp1468
sS'best'
p1469
(F1.0
F0.0
tp1470
sS'pietepeuter'
p1471
(F0.0
F1.0
tp1472
sS'dapperheid'
p1473
(F0.5
F0.0
tp1474
sS'agitatie'
p1475
(F0.0
F0.5
tp1476
sS'smaad'
p1477
(F0.0
F1.0
tp1478
sS'sekreet'
p1479
(F0.0
F1.0
tp1480
sS'coupeoleil'
p1481
(F0.25
F0.0
tp1482
sS'voortreffelijk'
p1483
(F1.0
F0.0
tp1484
sS'gearmd'
p1485
(F0.5
F0.0
tp1486
sS'rare'
p1487
(F0.0
F1.0
tp1488
sS'wanorde'
p1489
(F0.0
F1.0
tp1490
sS'bofkont'
p1491
(F1.0
F0.0
tp1492
sS'gevaarvol'
p1493
(F0.0
F0.5
tp1494
sS'verdomd'
p1495
(F0.0
F0.75
tp1496
sS'dader'
p1497
(F0.0
F0.5
tp1498
sS'destabilisatie'
p1499
(F0.0
F0.5
tp1500
sS'lethargie'
p1501
(F0.0
F0.5
tp1502
sS'opfleuren'
p1503
(F0.25
F0.0
tp1504
sS'boeien'
p1505
(F0.25
F0.0
tp1506
sS'lispelen'
p1507
(F0.0
F0.25
tp1508
sS'stoethaspel'
p1509
(F0.0
F0.5
tp1510
sS'vijandelijkheden'
p1511
(F0.0
F0.5
tp1512
sS'zin'
p1513
(F0.0
F0.25
tp1514
sS'geletterde'
p1515
(F0.25
F0.0
tp1516
sS'controversieel'
p1517
(F0.25
F0.25
tp1518
sS'incompetentie'
p1519
(F0.0
F0.5
tp1520
sS'Godslam'
p1521
(F0.0
F0.5
tp1522
sS'aangeklaagde'
p1523
(F0.0
F0.5
tp1524
sS'mijnengevaar'
p1525
(F0.0
F0.5
tp1526
sS'onbetamelijkheid'
p1527
(F0.0
F1.0
tp1528
sS'wraaklust'
p1529
(F0.0
F0.5
tp1530
sS'haarfijn'
p1531
(F0.75
F0.0
tp1532
sS'raadselachtig'
p1533
(F0.0
F0.25
tp1534
sS'ontketenen'
p1535
(F0.0
F0.25
tp1536
sS'beperkt'
p1537
(F0.0
F0.75
tp1538
sS'aanvulling'
p1539
(F0.25
F0.0
tp1540
sS'afwijzing'
p1541
(F0.0
F0.75
tp1542
sS'feeststemming'
p1543
(F0.5
F0.0
tp1544
sS'stennes'
p1545
(F0.0
F0.75
tp1546
sS'afstropen'
p1547
(F0.0
F0.5
tp1548
sS'herstel'
p1549
(F0.25
F0.0
tp1550
sS'bezorgd'
p1551
(F0.0
F0.25
tp1552
sS'knoeien'
p1553
(F0.0
F0.25
tp1554
sS'naieveling'
p1555
(F0.0
F0.5
tp1556
sS'verweesd'
p1557
(F0.0
F0.75
tp1558
sS'korteafstandsraket'
p1559
(F0.0
F0.25
tp1560
sS'standvastigheid'
p1561
(F0.25
F0.0
tp1562
sS'o.k.'
p1563
(F0.75
F0.0
tp1564
sS'hospitium'
p1565
(F0.25
F0.0
tp1566
sS'tegenslag'
p1567
(F0.0
F0.75
tp1568
sS'sterkte'
p1569
(F0.75
F0.0
tp1570
sS'ongemanierd'
p1571
(F0.0
F0.5
tp1572
sS'kommer'
p1573
(F0.0
F0.5
tp1574
sS'bemoeilijken'
p1575
(F0.0
F0.5
tp1576
sS'onooglijk'
p1577
(F0.0
F1.0
tp1578
sS'brak'
p1579
(F0.0
F0.75
tp1580
sS'knoeier'
p1581
(F0.0
F0.75
tp1582
sS'hilariteit'
p1583
(F0.5
F0.0
tp1584
sS'escapade'
p1585
(F0.0
F0.25
tp1586
sS'kundigheid'
p1587
(F1.0
F0.0
tp1588
sS'deblokkeren'
p1589
(F0.25
F0.0
tp1590
sS'compromis'
p1591
(F0.25
F0.25
tp1592
sS'struikelblok'
p1593
(F0.0
F0.5
tp1594
sS'ervaren'
p1595
(F0.25
F0.0
tp1596
sS'riskant'
p1597
(F0.0
F0.5
tp1598
sS'snijden'
p1599
(F0.0
F0.25
tp1600
sS'naleven'
p1601
(F0.25
F0.0
tp1602
sS'afgrijzen'
p1603
(F0.0
F1.0
tp1604
sS'epidemie'
p1605
(F0.0
F0.25
tp1606
sS'onbehaaglijk'
p1607
(F0.0
F0.25
tp1608
sS'openhartigheid'
p1609
(F0.5
F0.0
tp1610
sS'vast'
p1611
(F0.25
F0.0
tp1612
sS'aanstelling'
p1613
(F0.25
F0.0
tp1614
sS'verbazingwekkend'
p1615
(F0.5
F0.0
tp1616
sS'vals'
p1617
(F0.0
F1.0
tp1618
sS'rijkdommen'
p1619
(F0.5
F0.0
tp1620
sS'houden'
p1621
(F0.25
F0.0
tp1622
sS'strijden'
p1623
(F0.0
F0.25
tp1624
sS'ontzetting'
p1625
(F0.0
F1.0
tp1626
sS'prominent'
p1627
(F0.25
F0.0
tp1628
sS'verrot'
p1629
(F0.0
F1.0
tp1630
sS'elimineren'
p1631
(F0.0
F0.5
tp1632
sS'retoriek'
p1633
(F0.0
F0.25
tp1634
sS'fulmineren'
p1635
(F0.0
F0.5
tp1636
sS'nonsens'
p1637
(F0.0
F1.0
tp1638
sS'verstard'
p1639
(F0.0
F1.0
tp1640
sS'poehamaker'
p1641
(F0.0
F1.0
tp1642
sS'gewoon'
p1643
(F0.25
F0.0
tp1644
sS'slecht'
p1645
(F0.0
F1.0
tp1646
sS'talentvol'
p1647
(F1.0
F0.0
tp1648
sS'kroonluchter'
p1649
(F0.25
F0.0
tp1650
sS'criminaliteit'
p1651
(F0.0
F1.0
tp1652
sS'warmte'
p1653
(F0.25
F0.0
tp1654
sS'onordelijk'
p1655
(F0.0
F1.0
tp1656
sS'charisma'
p1657
(F0.5
F0.0
tp1658
sS'ineffici\xc3\xabntie'
p1659
(F0.0
F1.0
tp1660
sS'onstabiel'
p1661
(F0.0
F0.75
tp1662
sS'koortsachtig'
p1663
(F0.0
F0.5
tp1664
sS'privilege'
p1665
(F0.25
F0.0
tp1666
sS'racistisch'
p1667
(F0.0
F1.0
tp1668
sS'verwijderen'
p1669
(F0.0
F0.25
tp1670
sS'bedenkelijk'
p1671
(F0.0
F0.5
tp1672
sS'rellen'
p1673
(F0.0
F0.75
tp1674
sS'incompetent'
p1675
(F0.0
F0.5
tp1676
sS'sluipweg'
p1677
(F0.0
F0.25
tp1678
sS'hinniken'
p1679
(F0.0
F0.25
tp1680
sS'doelgericht'
p1681
(F1.0
F0.0
tp1682
sS'ophikken'
p1683
(F0.0
F0.25
tp1684
sS'verwerpen'
p1685
(F0.0
F0.5
tp1686
sS'ontberingen'
p1687
(F0.0
F0.5
tp1688
sS'altruistisch'
p1689
(F0.5
F0.0
tp1690
sS'proleet'
p1691
(F0.0
F0.25
tp1692
sS'voddenbaal'
p1693
(F0.0
F0.5
tp1694
sS'stabiel'
p1695
(F1.0
F0.0
tp1696
sS'beroerd'
p1697
(F0.0
F1.0
tp1698
sS'ontkennen'
p1699
(F0.0
F0.5
tp1700
sS'uitblussen'
p1701
(F0.0
F0.25
tp1702
sS'ontoereikend'
p1703
(F0.0
F1.0
tp1704
sS'coherent'
p1705
(F0.25
F0.0
tp1706
sS'lift'
p1707
(F0.25
F0.0
tp1708
sS'schokkend'
p1709
(F0.0
F1.0
tp1710
sS'verheugenis'
p1711
(F1.0
F0.0
tp1712
sS'tegenstaan'
p1713
(F0.0
F0.75
tp1714
sS'uniek'
p1715
(F1.0
F0.0
tp1716
sS'ineengedoken'
p1717
(F0.0
F0.25
tp1718
sS'mallotig'
p1719
(F0.0
F0.75
tp1720
sS'artritis'
p1721
(F0.0
F0.25
tp1722
sS'tovenares'
p1723
(F0.25
F0.25
tp1724
sS'gehoorzamen'
p1725
(F0.25
F0.0
tp1726
sS'pleger'
p1727
(F0.0
F0.5
tp1728
sS'heresie'
p1729
(F0.0
F0.25
tp1730
sS'wiet'
p1731
(F0.0
F0.25
tp1732
sS'kift'
p1733
(F0.0
F0.25
tp1734
sS'beschermer'
p1735
(F0.75
F0.0
tp1736
sS'zotheid'
p1737
(F0.0
F1.0
tp1738
sS'graflucht'
p1739
(F0.0
F0.5
tp1740
sS'beschermen'
p1741
(F0.25
F0.0
tp1742
sS'rottigheid'
p1743
(F0.0
F0.5
tp1744
sS'weren'
p1745
(F0.0
F0.25
tp1746
sS'gegoed'
p1747
(F1.0
F0.0
tp1748
sS'veelbewogen'
p1749
(F0.5
F0.0
tp1750
sS'gekkenwerk'
p1751
(F0.0
F1.0
tp1752
sS'zaniker'
p1753
(F0.0
F1.0
tp1754
sS'hinderpaal'
p1755
(F0.0
F0.25
tp1756
sS'oproer'
p1757
(F0.0
F0.5
tp1758
sS'ongemotiveerd'
p1759
(F0.0
F1.0
tp1760
sS'hunkeren'
p1761
(F0.25
F0.0
tp1762
sS'regentenkamer'
p1763
(F0.0
F0.25
tp1764
sS'bestraffen'
p1765
(F0.0
F0.25
tp1766
sS'klote'
p1767
(F0.0
F1.0
tp1768
sS'geduld'
p1769
(F0.25
F0.0
tp1770
sS'ploert'
p1771
(F0.0
F1.0
tp1772
sS'profitabel'
p1773
(F0.75
F0.0
tp1774
sS'moffelen'
p1775
(F0.0
F0.25
tp1776
sS'zakkerig'
p1777
(F0.0
F1.0
tp1778
sS'domheid'
p1779
(F0.0
F1.0
tp1780
sS'taaiheid'
p1781
(F0.25
F0.25
tp1782
sS'domkop'
p1783
(F0.0
F1.0
tp1784
sS'inactiviteit'
p1785
(F0.0
F0.25
tp1786
sS'droefenis'
p1787
(F0.0
F1.0
tp1788
sS'dissonantie'
p1789
(F0.0
F0.5
tp1790
sS'lomperik'
p1791
(F0.0
F1.0
tp1792
sS'clochard'
p1793
(F0.0
F0.5
tp1794
sS'malaise'
p1795
(F0.0
F0.5
tp1796
sS'desorganisatie'
p1797
(F0.0
F1.0
tp1798
sS'vervloekt'
p1799
(F0.0
F1.0
tp1800
sS'patent'
p1801
(F0.25
F0.0
tp1802
sS'lapzwans'
p1803
(F0.0
F1.0
tp1804
sS'ineptie'
p1805
(F0.0
F0.25
tp1806
sS'ondermijnen'
p1807
(F0.0
F0.75
tp1808
sS'frustratie'
p1809
(F0.0
F1.0
tp1810
sS'geweten'
p1811
(F0.25
F0.0
tp1812
sS'discretie'
p1813
(F0.25
F0.0
tp1814
sS'drop-out'
p1815
(F0.0
F0.75
tp1816
sS'kriegelig'
p1817
(F0.0
F0.25
tp1818
sS'januskop'
p1819
(F0.0
F1.0
tp1820
sS'onderwerpen'
p1821
(F0.0
F0.25
tp1822
sS'ongerijmdheid'
p1823
(F0.25
F0.5
tp1824
sS'vertelsel'
p1825
(F0.0
F0.25
tp1826
sS'illusionair'
p1827
(F0.0
F0.75
tp1828
sS'oppervlakkigheid'
p1829
(F0.0
F0.25
tp1830
sS'ideaal'
p1831
(F1.0
F0.0
tp1832
sS'verrijken'
p1833
(F0.75
F0.0
tp1834
sS'hartje'
p1835
(F0.25
F0.0
tp1836
sS'tragikomisch'
p1837
(F0.0
F0.25
tp1838
sS'toelating'
p1839
(F0.5
F0.0
tp1840
sS'doodlachen'
p1841
(F0.0
F0.25
tp1842
sS'monotonie'
p1843
(F0.0
F0.25
tp1844
sS'truc'
p1845
(F0.25
F0.5
tp1846
sS'mompelen'
p1847
(F0.0
F0.25
tp1848
sS'verwaarlozen'
p1849
(F0.0
F1.0
tp1850
sS'nix'
p1851
(F0.0
F0.25
tp1852
sS'negatie'
p1853
(F0.0
F0.25
tp1854
sS'angsthaas'
p1855
(F0.0
F1.0
tp1856
sS'ontoereikendheid'
p1857
(F0.0
F0.75
tp1858
sS'gehoorzaamheid'
p1859
(F0.5
F0.0
tp1860
sS'afkrabbelen'
p1861
(F0.0
F0.25
tp1862
sS'amateuristisch'
p1863
(F0.0
F1.0
tp1864
sS'potsierlijkheid'
p1865
(F0.0
F0.5
tp1866
sS'foetsie'
p1867
(F0.0
F0.25
tp1868
sS'sacraal'
p1869
(F0.5
F0.0
tp1870
sS'aardig'
p1871
(F1.0
F0.0
tp1872
sS'verdeeld'
p1873
(F0.0
F0.25
tp1874
sS'mindere'
p1875
(F0.0
F1.0
tp1876
sS'verwerkelijking'
p1877
(F0.75
F0.0
tp1878
sS'stupiditeit'
p1879
(F0.0
F1.0
tp1880
sS'gespuis'
p1881
(F0.0
F1.0
tp1882
sS'victorie'
p1883
(F0.5
F0.0
tp1884
sS'pijnbank'
p1885
(F0.0
F0.5
tp1886
sS'betwistbaar'
p1887
(F0.0
F0.5
tp1888
sS'quatsch'
p1889
(F0.0
F1.0
tp1890
sS'neerslachtigheid'
p1891
(F0.0
F1.0
tp1892
sS'draaglijk'
p1893
(F0.25
F0.25
tp1894
sS'watje'
p1895
(F0.0
F0.75
tp1896
sS'probleem'
p1897
(F0.0
F1.0
tp1898
sS'praatjesmaker'
p1899
(F0.0
F0.5
tp1900
sS'krachtpatser'
p1901
(F0.0
F0.5
tp1902
sS'viermeterworp'
p1903
(F0.25
F0.0
tp1904
sS'gezet'
p1905
(F0.0
F0.25
tp1906
sS'besef'
p1907
(F0.25
F0.0
tp1908
sS'overmannen'
p1909
(F0.0
F0.25
tp1910
sS'schipbreuk'
p1911
(F0.0
F0.25
tp1912
sS'dikkerd'
p1913
(F0.0
F0.75
tp1914
sS'agressief'
p1915
(F0.0
F1.0
tp1916
sS'beroering'
p1917
(F0.0
F0.25
tp1918
sS'boosheid'
p1919
(F0.0
F0.75
tp1920
sS'krom'
p1921
(F0.0
F0.5
tp1922
sS'losgaan'
p1923
(F0.25
F0.0
tp1924
sS'kalm'
p1925
(F0.75
F0.0
tp1926
sS'niet-ingezetene'
p1927
(F0.0
F0.25
tp1928
sS'futloos'
p1929
(F0.0
F1.0
tp1930
sS'tuinieren'
p1931
(F0.25
F0.0
tp1932
sS'amoreel'
p1933
(F0.0
F0.75
tp1934
sS'veredeling'
p1935
(F0.25
F0.0
tp1936
sS'schunnig'
p1937
(F0.0
F1.0
tp1938
sS'erkenning'
p1939
(F0.5
F0.0
tp1940
sS'waarheid'
p1941
(F0.5
F0.0
tp1942
sS'supporter'
p1943
(F0.0
F0.25
tp1944
sS'lusteloos'
p1945
(F0.0
F1.0
tp1946
sS'wegvloeien'
p1947
(F0.0
F0.25
tp1948
sS'taboe'
p1949
(F0.0
F1.0
tp1950
sS'opscheppen'
p1951
(F0.0
F0.75
tp1952
sS'obsederen'
p1953
(F0.0
F1.0
tp1954
sS'kleppen'
p1955
(F0.0
F0.75
tp1956
sS'ezel'
p1957
(F0.0
F0.5
tp1958
sS'samenwerking'
p1959
(F0.25
F0.0
tp1960
sS'fundamentalisme'
p1961
(F0.0
F0.5
tp1962
sS'verschijning'
p1963
(F0.0
F0.25
tp1964
sS'gehakketak'
p1965
(F0.0
F0.5
tp1966
sS'omkoopbaar'
p1967
(F0.0
F1.0
tp1968
sS'komisch'
p1969
(F1.0
F0.0
tp1970
sS'vergeetachtigheid'
p1971
(F0.0
F1.0
tp1972
sS'verschrikkelijk'
p1973
(F0.0
F1.0
tp1974
sS'tuttebel'
p1975
(F0.0
F1.0
tp1976
sS'overwerken'
p1977
(F0.0
F0.25
tp1978
sS'boerenhufter'
p1979
(F0.0
F1.0
tp1980
sS'hufter'
p1981
(F0.0
F1.0
tp1982
sS'plomperd'
p1983
(F0.0
F1.0
tp1984
sS'rusteloos'
p1985
(F0.0
F1.0
tp1986
sS'pooier'
p1987
(F0.0
F1.0
tp1988
sS'wissen'
p1989
(F0.0
F0.25
tp1990
sS'achteruitwijken'
p1991
(F0.0
F0.25
tp1992
sS'pijnigen'
p1993
(F0.0
F0.75
tp1994
sS'sereniteit'
p1995
(F0.5
F0.0
tp1996
sS'groef'
p1997
(F0.0
F0.25
tp1998
sS'dankbaar'
p1999
(F0.5
F0.0
tp2000
sS'groen'
p2001
(F0.0
F0.25
tp2002
sS'overhalen'
p2003
(F0.25
F0.0
tp2004
sS'depersonalisatie'
p2005
(F0.0
F0.5
tp2006
sS'geluksvogel'
p2007
(F1.0
F0.0
tp2008
sS'voluntarisme'
p2009
(F0.25
F0.0
tp2010
sS'onveiligheid'
p2011
(F0.0
F1.0
tp2012
sS'bigotterie'
p2013
(F0.0
F0.25
tp2014
sS'bassen'
p2015
(F0.0
F0.25
tp2016
sS'onvermijdelijkheid'
p2017
(F0.0
F0.25
tp2018
sS'onsolide'
p2019
(F0.0
F0.5
tp2020
sS'vrolijk'
p2021
(F1.0
F0.0
tp2022
sS'apart'
p2023
(F0.0
F0.25
tp2024
sS'litteken'
p2025
(F0.0
F0.25
tp2026
sS'zeehondebont'
p2027
(F0.0
F0.25
tp2028
sS'kleumen'
p2029
(F0.0
F0.25
tp2030
sS'beduvelarij'
p2031
(F0.0
F1.0
tp2032
sS'antipathie'
p2033
(F0.0
F1.0
tp2034
sS'afschuw'
p2035
(F0.0
F1.0
tp2036
sS'zooi'
p2037
(F0.0
F1.0
tp2038
sS'weerzin'
p2039
(F0.0
F1.0
tp2040
sS'ongedurig'
p2041
(F0.0
F0.25
tp2042
sS'godin'
p2043
(F0.25
F0.0
tp2044
sS'honger'
p2045
(F0.0
F0.25
tp2046
sS'verergering'
p2047
(F0.0
F1.0
tp2048
sS'uitgommen'
p2049
(F0.0
F0.5
tp2050
sS'huwelijksmoeilijkheden'
p2051
(F0.0
F0.5
tp2052
sS'afgezaagd'
p2053
(F0.0
F1.0
tp2054
sS'strak'
p2055
(F0.5
F0.0
tp2056
sS'krachteloos'
p2057
(F0.0
F0.75
tp2058
sS'fanatisme'
p2059
(F0.25
F0.0
tp2060
sS'stumperig'
p2061
(F0.0
F1.0
tp2062
sS'kunstleer'
p2063
(F0.0
F0.25
tp2064
sS'deal'
p2065
(F0.5
F0.0
tp2066
sS'onvolledig'
p2067
(F0.0
F0.5
tp2068
sS'geklier'
p2069
(F0.0
F0.5
tp2070
sS'onbescheiden'
p2071
(F0.0
F0.25
tp2072
sS'kuisen'
p2073
(F0.0
F0.5
tp2074
sS'prijzig'
p2075
(F0.0
F1.0
tp2076
sS'gemakkelijk'
p2077
(F0.75
F0.0
tp2078
sS'vreugde'
p2079
(F1.0
F0.0
tp2080
sS'zachtzinnig'
p2081
(F0.75
F0.0
tp2082
sS'lammeling'
p2083
(F0.0
F1.0
tp2084
sS'borrelen'
p2085
(F0.25
F0.0
tp2086
sS'onaneren'
p2087
(F0.0
F0.25
tp2088
sS'gratuit'
p2089
(F0.0
F0.25
tp2090
sS'treurnis'
p2091
(F0.0
F1.0
tp2092
sS'onverhoeds'
p2093
(F0.0
F0.25
tp2094
sS'achterdochtig'
p2095
(F0.0
F1.0
tp2096
sS'bereid'
p2097
(F0.25
F0.0
tp2098
sS'onderdrukking'
p2099
(F0.0
F0.5
tp2100
sS'minderbedeelde'
p2101
(F0.0
F0.5
tp2102
sS'mirakels'
p2103
(F0.5
F0.0
tp2104
sS'heiligen'
p2105
(F0.25
F0.0
tp2106
sS'humor'
p2107
(F1.0
F0.0
tp2108
sS'moordtuig'
p2109
(F0.0
F0.5
tp2110
sS'pierewaaier'
p2111
(F0.0
F0.5
tp2112
sS'vriendschap'
p2113
(F0.5
F0.0
tp2114
sS'onwil'
p2115
(F0.0
F0.75
tp2116
sS'gesel'
p2117
(F0.0
F0.5
tp2118
sS'prestigieus'
p2119
(F0.5
F0.0
tp2120
sS'energieloos'
p2121
(F0.0
F1.0
tp2122
sS'chantage'
p2123
(F0.0
F0.5
tp2124
sS'reuze-'
p2125
(F1.0
F0.0
tp2126
sS'intolerant'
p2127
(F0.0
F1.0
tp2128
sS'onverenigbaar'
p2129
(F0.0
F1.0
tp2130
sS'stakker'
p2131
(F0.0
F0.75
tp2132
sS'falangisme'
p2133
(F0.0
F0.5
tp2134
sS'boksring'
p2135
(F0.0
F0.25
tp2136
sS'inspiratie'
p2137
(F1.0
F0.0
tp2138
sS'provocateur'
p2139
(F0.0
F0.5
tp2140
sS'ruig'
p2141
(F0.0
F0.25
tp2142
sS'aanbranden'
p2143
(F0.0
F0.25
tp2144
sS'treffend'
p2145
(F0.75
F0.0
tp2146
sS'vloeiend'
p2147
(F0.75
F0.0
tp2148
sS'onbehagen'
p2149
(F0.0
F1.0
tp2150
sS'beroemdheid'
p2151
(F0.5
F0.0
tp2152
sS'ontgoocheld'
p2153
(F0.0
F1.0
tp2154
sS'extreem'
p2155
(F0.0
F0.25
tp2156
sS'miljonair'
p2157
(F0.25
F0.0
tp2158
sS'etterbuil'
p2159
(F0.0
F1.0
tp2160
sS'beklemming'
p2161
(F0.0
F0.5
tp2162
sS'rookgordijn'
p2163
(F0.0
F0.25
tp2164
sS'herrie'
p2165
(F0.0
F1.0
tp2166
sS'onzin'
p2167
(F0.0
F1.0
tp2168
sS'super'
p2169
(F1.0
F0.0
tp2170
sS'verrichten'
p2171
(F0.25
F0.0
tp2172
sS'rund'
p2173
(F0.0
F0.5
tp2174
sS'overleveren'
p2175
(F0.0
F0.25
tp2176
sS'oudwijf'
p2177
(F0.0
F0.75
tp2178
sS'avontuur'
p2179
(F0.5
F0.0
tp2180
sS'grappenmaker'
p2181
(F0.5
F0.0
tp2182
sS'snoever'
p2183
(F0.0
F0.5
tp2184
sS'eerlijk'
p2185
(F0.75
F0.0
tp2186
sS'doorslenteren'
p2187
(F0.0
F0.5
tp2188
sS'maximaliseren'
p2189
(F0.5
F0.0
tp2190
sS'creativiteit'
p2191
(F1.0
F0.0
tp2192
sS'rentenieren'
p2193
(F0.25
F0.0
tp2194
sS'rasploert'
p2195
(F0.0
F1.0
tp2196
sS'kraaien'
p2197
(F0.0
F0.5
tp2198
sS'cliche'
p2199
(F0.0
F0.75
tp2200
sS'genocide'
p2201
(F0.0
F0.5
tp2202
sS'strikt'
p2203
(F0.0
F0.25
tp2204
sS'geleidewapen'
p2205
(F0.0
F0.25
tp2206
sS'snoeven'
p2207
(F0.0
F0.5
tp2208
sS'aanstootgevend'
p2209
(F0.0
F1.0
tp2210
sS'inklemmen'
p2211
(F0.0
F0.25
tp2212
sS'heerschap'
p2213
(F0.25
F0.25
tp2214
sS'eindeloos'
p2215
(F0.0
F0.5
tp2216
sS'amusant'
p2217
(F1.0
F0.0
tp2218
sS'onwillig'
p2219
(F0.0
F0.5
tp2220
sS'bombardement'
p2221
(F0.0
F0.25
tp2222
sS'schijnheilige'
p2223
(F0.0
F1.0
tp2224
sS'dilemma'
p2225
(F0.0
F0.5
tp2226
sS'assimileren'
p2227
(F0.0
F0.25
tp2228
sS'krikkemikkig'
p2229
(F0.0
F0.75
tp2230
sS'scheren'
p2231
(F0.0
F0.25
tp2232
sS'nakomen'
p2233
(F0.25
F0.0
tp2234
sS'geriefelijk'
p2235
(F0.5
F0.5
tp2236
sS'achteraanrennen'
p2237
(F0.0
F0.25
tp2238
sS'inspireren'
p2239
(F0.75
F0.0
tp2240
sS'down'
p2241
(F0.0
F0.75
tp2242
sS'defectief'
p2243
(F0.0
F0.5
tp2244
sS'overkill'
p2245
(F0.0
F1.0
tp2246
sS'beroemd'
p2247
(F1.0
F0.0
tp2248
sS'samen'
p2249
(F0.25
F0.0
tp2250
sS'sukkelig'
p2251
(F0.0
F1.0
tp2252
sS'degen'
p2253
(F0.0
F0.25
tp2254
sS'ontduiken'
p2255
(F0.0
F0.5
tp2256
sS'nadenken'
p2257
(F0.25
F0.0
tp2258
sS'ketterij'
p2259
(F0.0
F1.0
tp2260
sS'koud'
p2261
(F0.0
F0.25
tp2262
sS'versterken'
p2263
(F0.5
F0.0
tp2264
sS'zuchten'
p2265
(F0.0
F0.5
tp2266
sS'potentaat'
p2267
(F0.0
F0.5
tp2268
sS'aanpoten'
p2269
(F0.25
F0.0
tp2270
sS'stereotype'
p2271
(F0.0
F0.5
tp2272
sS'realistisch'
p2273
(F0.75
F0.0
tp2274
sS'panorama'
p2275
(F0.25
F0.0
tp2276
sS'worstelen'
p2277
(F0.0
F0.25
tp2278
sS'bijeenzijn'
p2279
(F0.25
F0.0
tp2280
sS'gif'
p2281
(F0.0
F0.5
tp2282
sS'onrechtvaardigheid'
p2283
(F0.0
F1.0
tp2284
sS'fabuleus'
p2285
(F1.0
F0.0
tp2286
sS'opbreken'
p2287
(F0.0
F0.25
tp2288
sS'verzoenen'
p2289
(F0.75
F0.0
tp2290
sS'gestoord'
p2291
(F0.0
F1.0
tp2292
sS'droogpruim'
p2293
(F0.0
F0.5
tp2294
sS'verdienen'
p2295
(F0.5
F0.0
tp2296
sS'reprobatie'
p2297
(F0.0
F0.25
tp2298
sS'waard'
p2299
(F0.25
F0.0
tp2300
sS'beangstigend'
p2301
(F0.0
F1.0
tp2302
sS'wantrouwen'
p2303
(F0.0
F0.75
tp2304
sS'bezighouden'
p2305
(F0.0
F0.25
tp2306
sS'traag'
p2307
(F0.0
F1.0
tp2308
sS'vastraken'
p2309
(F0.0
F0.25
tp2310
sS'amateur'
p2311
(F0.0
F0.75
tp2312
sS'hereniging'
p2313
(F0.25
F0.0
tp2314
sS'onbetwistbaar'
p2315
(F0.5
F0.0
tp2316
sS'offer'
p2317
(F0.0
F0.25
tp2318
sS'zonde'
p2319
(F0.0
F0.75
tp2320
sS'boerenkinkel'
p2321
(F0.0
F1.0
tp2322
sS'kakkebroek'
p2323
(F0.0
F0.75
tp2324
sS'revalidatie'
p2325
(F0.25
F0.0
tp2326
sS'actief'
p2327
(F0.75
F0.0
tp2328
sS'zielenherder'
p2329
(F0.5
F0.25
tp2330
sS'oprechtheid'
p2331
(F0.75
F0.0
tp2332
sS'bekommerd'
p2333
(F0.5
F0.25
tp2334
sS'leider'
p2335
(F0.25
F0.0
tp2336
sS'spooksel'
p2337
(F0.0
F0.5
tp2338
sS'zever'
p2339
(F0.0
F0.75
tp2340
sS'fors'
p2341
(F0.25
F0.25
tp2342
sS'ego\xc3\xafstisch'
p2343
(F0.0
F1.0
tp2344
sS'keuvelen'
p2345
(F0.0
F0.5
tp2346
sS'onstuimig'
p2347
(F0.0
F0.75
tp2348
sS'viespeuk'
p2349
(F0.0
F1.0
tp2350
sS'gematigd'
p2351
(F0.25
F0.25
tp2352
sS'zelfbeschikking'
p2353
(F0.25
F0.0
tp2354
sS'onbetamelijk'
p2355
(F0.0
F1.0
tp2356
sS'onbehendig'
p2357
(F0.0
F1.0
tp2358
sS'geaffecteerd'
p2359
(F0.5
F0.0
tp2360
sS'onbetrouwbaarheid'
p2361
(F0.0
F1.0
tp2362
sS'onbetaalbaar'
p2363
(F0.0
F1.0
tp2364
sS'verdediger'
p2365
(F0.25
F0.0
tp2366
sS'eergevoel'
p2367
(F0.5
F0.25
tp2368
sS'inconsequentie'
p2369
(F0.0
F0.5
tp2370
sS'kletspraat'
p2371
(F0.0
F1.0
tp2372
sS'pest'
p2373
(F0.0
F0.75
tp2374
sS'ruim'
p2375
(F0.25
F0.0
tp2376
sS'schuld'
p2377
(F0.0
F0.75
tp2378
sS'moeiteloos'
p2379
(F1.0
F0.0
tp2380
sS'overrulen'
p2381
(F0.0
F0.25
tp2382
sS'propaganda'
p2383
(F0.0
F0.5
tp2384
sS'minutieus'
p2385
(F0.5
F0.0
tp2386
sS'perkeloos'
p2387
(F0.5
F0.25
tp2388
sS'discriminatie'
p2389
(F0.0
F1.0
tp2390
sS'alchimist'
p2391
(F0.0
F0.25
tp2392
sS'glans'
p2393
(F0.75
F0.0
tp2394
sS'smerigheid'
p2395
(F0.0
F0.75
tp2396
sS'verstaanbaar'
p2397
(F0.5
F0.0
tp2398
sS'vergoeding'
p2399
(F0.25
F0.0
tp2400
sS'stommigheid'
p2401
(F0.0
F1.0
tp2402
sS'onwaarschijnlijkheid'
p2403
(F0.0
F0.75
tp2404
sS'griet'
p2405
(F0.0
F0.5
tp2406
sS'schraper'
p2407
(F0.0
F0.25
tp2408
sS'zelfgenoegzaam'
p2409
(F0.0
F1.0
tp2410
sS'bestoken'
p2411
(F0.0
F0.5
tp2412
sS'nietsbetekenend'
p2413
(F0.0
F0.5
tp2414
sS'ziekelijk'
p2415
(F0.0
F1.0
tp2416
sS'sparen'
p2417
(F0.25
F0.0
tp2418
sS'dwang'
p2419
(F0.0
F0.75
tp2420
sS'triomfantelijk'
p2421
(F0.25
F0.0
tp2422
sS'mediocre'
p2423
(F0.0
F0.25
tp2424
sS'geoefendheid'
p2425
(F1.0
F0.0
tp2426
sS'vlotter'
p2427
(F0.5
F0.0
tp2428
sS'gekromd'
p2429
(F0.0
F0.25
tp2430
sS'welstand'
p2431
(F0.5
F0.0
tp2432
sS'verstoord'
p2433
(F0.0
F0.5
tp2434
sS'autocratisch'
p2435
(F0.0
F0.5
tp2436
sS'branieschopper'
p2437
(F0.0
F0.75
tp2438
sS'leep'
p2439
(F0.0
F0.5
tp2440
sS'mazen'
p2441
(F0.0
F0.25
tp2442
sS'apathisch'
p2443
(F0.0
F0.5
tp2444
sS'bewenen'
p2445
(F0.0
F0.5
tp2446
sS'kaperschip'
p2447
(F0.0
F0.25
tp2448
sS'leeg'
p2449
(F0.0
F0.5
tp2450
sS'leed'
p2451
(F0.0
F1.0
tp2452
sS'machteloos'
p2453
(F0.0
F0.75
tp2454
sS'geconcentreerd'
p2455
(F0.75
F0.0
tp2456
sS'wetteloosheid'
p2457
(F0.0
F1.0
tp2458
sS'topper'
p2459
(F1.0
F0.0
tp2460
sS'moeras'
p2461
(F0.0
F0.25
tp2462
sS'blaam'
p2463
(F0.0
F0.75
tp2464
sS'bewonderenswaard'
p2465
(F1.0
F0.0
tp2466
sS'cohesie'
p2467
(F0.25
F0.0
tp2468
sS'verbondenheid'
p2469
(F0.5
F0.0
tp2470
sS'martelaarsgezicht'
p2471
(F0.25
F0.0
tp2472
sS'giftig'
p2473
(F0.0
F1.0
tp2474
sS'diep'
p2475
(F0.0
F0.25
tp2476
sS'peacekeeper'
p2477
(F0.75
F0.0
tp2478
sS'aangenaam'
p2479
(F1.0
F0.0
tp2480
sS'zegen'
p2481
(F1.0
F0.0
tp2482
sS'huiselijk'
p2483
(F0.5
F0.0
tp2484
sS'zondebok'
p2485
(F0.0
F0.75
tp2486
sS'professional'
p2487
(F1.0
F0.0
tp2488
sS'sexy'
p2489
(F1.0
F0.0
tp2490
sS'warrig'
p2491
(F0.0
F1.0
tp2492
sS'klierig'
p2493
(F0.0
F1.0
tp2494
sS'neonazi'
p2495
(F0.0
F0.5
tp2496
sS'optimisme'
p2497
(F1.0
F0.0
tp2498
sS'losraken'
p2499
(F0.0
F0.25
tp2500
sS'comfortabel'
p2501
(F1.0
F0.0
tp2502
sS'ziekteproces'
p2503
(F0.0
F0.25
tp2504
sS'verdrukking'
p2505
(F0.0
F0.5
tp2506
sS'allright'
p2507
(F1.0
F0.0
tp2508
sS'ezelachtig'
p2509
(F0.0
F0.5
tp2510
sS'hakkelen'
p2511
(F0.0
F0.25
tp2512
sS'cellulitis'
p2513
(F0.0
F0.25
tp2514
sS'licht'
p2515
(F0.5
F0.0
tp2516
sS'schandaal'
p2517
(F0.0
F1.0
tp2518
sS'gedraging'
p2519
(F0.0
F0.25
tp2520
sS'dicht'
p2521
(F0.0
F0.25
tp2522
sS'gedrocht'
p2523
(F0.0
F1.0
tp2524
sS'verstrikken'
p2525
(F0.0
F0.75
tp2526
sS'rampspoed'
p2527
(F0.0
F1.0
tp2528
sS'verdragen'
p2529
(F0.25
F0.25
tp2530
sS'zeiker'
p2531
(F0.0
F1.0
tp2532
sS'vechtjas'
p2533
(F0.0
F0.5
tp2534
sS'onvoorzien'
p2535
(F0.0
F0.25
tp2536
sS'sympathie'
p2537
(F1.0
F0.0
tp2538
sS'partijdig'
p2539
(F0.0
F1.0
tp2540
sS'veiligheid'
p2541
(F0.5
F0.0
tp2542
sS'erosie'
p2543
(F0.0
F0.25
tp2544
sS'stemmingmaker'
p2545
(F0.5
F0.25
tp2546
sS'geheiligd'
p2547
(F0.75
F0.0
tp2548
sS'mild'
p2549
(F0.25
F0.0
tp2550
sS'wauwelen'
p2551
(F0.0
F1.0
tp2552
sS'snit'
p2553
(F0.25
F0.0
tp2554
sS'waanidee'
p2555
(F0.0
F1.0
tp2556
sS'rendabiliteit'
p2557
(F0.25
F0.0
tp2558
sS'shot'
p2559
(F0.0
F0.25
tp2560
sS'groteske'
p2561
(F0.5
F0.25
tp2562
sS'smet'
p2563
(F0.0
F1.0
tp2564
sS'rot'
p2565
(F0.0
F1.0
tp2566
sS'ongeduld'
p2567
(F0.0
F0.75
tp2568
sS'krankjorum'
p2569
(F0.0
F1.0
tp2570
sS'lonend'
p2571
(F0.75
F0.0
tp2572
sS'beleefd'
p2573
(F1.0
F0.0
tp2574
sS'zoutzuur'
p2575
(F0.0
F0.25
tp2576
sS'verkwijnen'
p2577
(F0.0
F0.25
tp2578
sS'geneuzel'
p2579
(F0.0
F1.0
tp2580
sS'spijkerhard'
p2581
(F0.25
F0.0
tp2582
sS'wetenschappelijk'
p2583
(F0.75
F0.0
tp2584
sS'zuivering'
p2585
(F0.25
F0.25
tp2586
sS'onkuis'
p2587
(F0.0
F0.75
tp2588
sS'uitnodigend'
p2589
(F1.0
F0.0
tp2590
sS'lekkernij'
p2591
(F0.75
F0.0
tp2592
sS'eerlijkheid'
p2593
(F1.0
F0.0
tp2594
sS'indoctrinatie'
p2595
(F0.0
F1.0
tp2596
sS'rivaal'
p2597
(F0.0
F0.25
tp2598
sS'idealist'
p2599
(F0.25
F0.0
tp2600
sS'macho'
p2601
(F0.0
F0.75
tp2602
sS'verdwijnen'
p2603
(F0.0
F0.25
tp2604
sS'criticaster'
p2605
(F0.0
F0.5
tp2606
sS'vriendin'
p2607
(F0.5
F0.0
tp2608
sS'onbelangrijk'
p2609
(F0.0
F0.25
tp2610
sS'vet'
p2611
(F0.0
F0.25
tp2612
sS'zeiksnor'
p2613
(F0.0
F1.0
tp2614
sS'behendigheid'
p2615
(F0.75
F0.0
tp2616
sS'kwast'
p2617
(F0.0
F0.25
tp2618
sS'prijzenswaardig'
p2619
(F1.0
F0.0
tp2620
sS'prijzenswaard'
p2621
(F1.0
F0.0
tp2622
sS'rommelig'
p2623
(F0.0
F0.75
tp2624
sS'strubbelingen'
p2625
(F0.0
F0.75
tp2626
sS'inzicht'
p2627
(F0.5
F0.0
tp2628
sS'stuiten'
p2629
(F0.0
F0.25
tp2630
sS'bevestigend'
p2631
(F0.75
F0.0
tp2632
sS'heksenmeester'
p2633
(F0.0
F0.5
tp2634
sS'schijtebroek'
p2635
(F0.0
F1.0
tp2636
sS'bezielen'
p2637
(F0.0
F0.25
tp2638
sS'belediging'
p2639
(F0.0
F0.75
tp2640
sS'ongenadig'
p2641
(F0.0
F0.75
tp2642
sS'bangerik'
p2643
(F0.0
F1.0
tp2644
sS'gelegenheid'
p2645
(F0.25
F0.0
tp2646
sS'dolletjes'
p2647
(F0.75
F0.0
tp2648
sS'uitklauteren'
p2649
(F0.25
F0.0
tp2650
sS'aanstoot'
p2651
(F0.0
F0.5
tp2652
sS'kampioenschap'
p2653
(F0.25
F0.0
tp2654
sS'onsmakelijk'
p2655
(F0.0
F1.0
tp2656
sS'bloedgetuige'
p2657
(F0.0
F0.25
tp2658
sS'leven'
p2659
(F0.25
F0.0
tp2660
sS'dik'
p2661
(F0.0
F0.5
tp2662
sS'nijd'
p2663
(F0.0
F0.75
tp2664
sS'varkenshok'
p2665
(F0.0
F0.75
tp2666
sS'levenskracht'
p2667
(F0.5
F0.0
tp2668
sS'onvoorbereid'
p2669
(F0.0
F1.0
tp2670
sS'bezwijken'
p2671
(F0.0
F0.75
tp2672
sS'gul'
p2673
(F1.0
F0.0
tp2674
sS'schobben'
p2675
(F0.0
F0.25
tp2676
sS'riool'
p2677
(F0.0
F0.25
tp2678
sS'buitensporig'
p2679
(F0.0
F0.75
tp2680
sS'omhaal'
p2681
(F0.0
F0.25
tp2682
sS'dolblij'
p2683
(F0.5
F0.0
tp2684
sS'gelukzak'
p2685
(F0.5
F0.25
tp2686
sS'verrassend'
p2687
(F0.75
F0.0
tp2688
sS'uithangen'
p2689
(F0.0
F0.25
tp2690
sS'bluffen'
p2691
(F0.0
F0.5
tp2692
sS'plooibaarheid'
p2693
(F0.25
F0.0
tp2694
sS'babyface'
p2695
(F0.0
F0.25
tp2696
sS'dwarskop'
p2697
(F0.0
F1.0
tp2698
sS'meute'
p2699
(F0.0
F0.25
tp2700
sS'bakbeest'
p2701
(F0.0
F0.25
tp2702
sS'bendelid'
p2703
(F0.0
F0.5
tp2704
sS'ruk'
p2705
(F0.0
F0.25
tp2706
sS'lamlendig'
p2707
(F0.0
F1.0
tp2708
sS'genieten'
p2709
(F0.75
F0.0
tp2710
sS'hongerig'
p2711
(F0.0
F0.25
tp2712
sS'laaghartig'
p2713
(F0.0
F0.5
tp2714
sS'ontzetten'
p2715
(F0.0
F0.25
tp2716
sS'ontzind'
p2717
(F0.0
F0.75
tp2718
sS'rotzooi'
p2719
(F0.0
F1.0
tp2720
sS'actieveling'
p2721
(F0.25
F0.0
tp2722
sS'gekakel'
p2723
(F0.0
F0.75
tp2724
sS'discutabel'
p2725
(F0.0
F0.5
tp2726
sS'opstappen'
p2727
(F0.0
F0.25
tp2728
sS'medeplichtig'
p2729
(F0.0
F0.5
tp2730
sS'verlichten'
p2731
(F0.25
F0.0
tp2732
sS'werkwillige'
p2733
(F0.75
F0.0
tp2734
sS'gekkenpraat'
p2735
(F0.0
F1.0
tp2736
sS'achteloos'
p2737
(F0.0
F1.0
tp2738
sS'twistgesprek'
p2739
(F0.0
F0.5
tp2740
sS'benauwd'
p2741
(F0.0
F0.75
tp2742
sS'treuren'
p2743
(F0.0
F0.25
tp2744
sS'verbod'
p2745
(F0.0
F0.25
tp2746
sS'geestig'
p2747
(F1.0
F0.0
tp2748
sS'abominabel'
p2749
(F0.5
F0.5
tp2750
sS'verderfelijk'
p2751
(F0.0
F1.0
tp2752
sS'spinnijdig'
p2753
(F0.0
F0.75
tp2754
sS'belofte'
p2755
(F0.25
F0.0
tp2756
sS'afblijven'
p2757
(F0.0
F0.25
tp2758
sS'ontdaan'
p2759
(F0.0
F0.75
tp2760
sS'betreuren'
p2761
(F0.0
F0.25
tp2762
sS'suspect'
p2763
(F0.0
F0.5
tp2764
sS'pijpenla'
p2765
(F0.0
F0.25
tp2766
sS'toevlucht'
p2767
(F0.25
F0.0
tp2768
sS'machtspreuk'
p2769
(F0.0
F0.25
tp2770
sS'eerroof'
p2771
(F0.0
F0.5
tp2772
sS'excentriciteit'
p2773
(F0.25
F0.0
tp2774
sS'humorist'
p2775
(F1.0
F0.0
tp2776
sS'onduidelijk'
p2777
(F0.0
F1.0
tp2778
sS'uitbuiting'
p2779
(F0.0
F1.0
tp2780
sS'ondernemend'
p2781
(F1.0
F0.0
tp2782
sS'waarschuwing'
p2783
(F0.0
F0.25
tp2784
sS'onaangenaam'
p2785
(F0.0
F1.0
tp2786
sS'eerbiedwaardig'
p2787
(F1.0
F0.0
tp2788
sS'sierlijkheid'
p2789
(F0.5
F0.0
tp2790
sS'permitteren'
p2791
(F0.25
F0.0
tp2792
sS'liefhebber'
p2793
(F0.75
F0.0
tp2794
sS'pessimisme'
p2795
(F0.0
F0.75
tp2796
sS'dwars'
p2797
(F0.0
F0.75
tp2798
sS'tirannie'
p2799
(F0.0
F1.0
tp2800
sS'liefhebben'
p2801
(F0.75
F0.0
tp2802
sS'kamp'
p2803
(F0.0
F0.25
tp2804
sS'voldoende'
p2805
(F0.75
F0.0
tp2806
sS'catastrofaal'
p2807
(F0.0
F1.0
tp2808
sS'speurtocht'
p2809
(F0.0
F0.25
tp2810
sS'downloaden'
p2811
(F0.0
F0.25
tp2812
sS'ingebeeld'
p2813
(F0.0
F0.25
tp2814
sS'degeneratie'
p2815
(F0.0
F0.5
tp2816
sS'katten'
p2817
(F0.0
F0.5
tp2818
sS'ongedeerd'
p2819
(F0.5
F0.0
tp2820
sS'ongrondwettig'
p2821
(F0.0
F1.0
tp2822
sS'twist'
p2823
(F0.0
F0.25
tp2824
sS'suizelen'
p2825
(F0.0
F0.5
tp2826
sS'vaardigheid'
p2827
(F0.25
F0.0
tp2828
sS'bot'
p2829
(F0.0
F0.25
tp2830
sS'zwijnjak'
p2831
(F0.0
F0.75
tp2832
sS'vuil'
p2833
(F0.0
F0.75
tp2834
sS'grimmig'
p2835
(F0.0
F1.0
tp2836
sS'weigeren'
p2837
(F0.0
F1.0
tp2838
sS'bom'
p2839
(F0.0
F0.5
tp2840
sS'verhongeren'
p2841
(F0.0
F0.75
tp2842
sS'wangedrocht'
p2843
(F0.0
F1.0
tp2844
sS'wegsaneren'
p2845
(F0.0
F0.25
tp2846
sS'lastig'
p2847
(F0.0
F0.75
tp2848
sS'sappelen'
p2849
(F0.0
F0.25
tp2850
sS'bof'
p2851
(F0.5
F0.25
tp2852
sS'satan'
p2853
(F0.0
F1.0
tp2854
sS'niksnut'
p2855
(F0.0
F1.0
tp2856
sS'degoutant'
p2857
(F0.0
F0.25
tp2858
sS'ondergewaardeerd'
p2859
(F0.0
F1.0
tp2860
sS'redundant'
p2861
(F0.0
F0.25
tp2862
sS'verrijking'
p2863
(F1.0
F0.0
tp2864
sS'enthousiasmeren'
p2865
(F0.5
F0.0
tp2866
sS'affirmatie'
p2867
(F0.25
F0.0
tp2868
sS'machtswellusteling'
p2869
(F0.0
F1.0
tp2870
sS'achterblijver'
p2871
(F0.0
F0.5
tp2872
sS'nero'
p2873
(F0.0
F0.25
tp2874
sS'uitglijder'
p2875
(F0.0
F1.0
tp2876
sS'onethisch'
p2877
(F0.0
F1.0
tp2878
sS'verdienstelijk'
p2879
(F1.0
F0.0
tp2880
sS'mazzelaar'
p2881
(F0.75
F0.0
tp2882
sS'kriebelig'
p2883
(F0.0
F0.5
tp2884
sS'beul'
p2885
(F0.0
F1.0
tp2886
sS'crisis'
p2887
(F0.0
F1.0
tp2888
sS'altru\xc3\xafst'
p2889
(F0.5
F0.0
tp2890
sS'onbetekenend'
p2891
(F0.0
F1.0
tp2892
sS'lulhannes'
p2893
(F0.0
F1.0
tp2894
sS'boerenlul'
p2895
(F0.0
F1.0
tp2896
sS'uitdelen'
p2897
(F0.25
F0.0
tp2898
sS'neuzelen'
p2899
(F0.0
F1.0
tp2900
sS'blaffen'
p2901
(F0.0
F0.25
tp2902
sS'romantisch'
p2903
(F1.0
F0.0
tp2904
sS'versteend'
p2905
(F0.0
F0.5
tp2906
sS'plebejer'
p2907
(F0.0
F0.75
tp2908
sS'ravage'
p2909
(F0.0
F1.0
tp2910
sS'ruw'
p2911
(F0.0
F0.75
tp2912
sS'geouwehoer'
p2913
(F0.0
F1.0
tp2914
sS'opstapje'
p2915
(F0.25
F0.0
tp2916
sS'hovaardig'
p2917
(F0.75
F0.0
tp2918
sS'stijfkop'
p2919
(F0.0
F0.5
tp2920
sS'zondvloed'
p2921
(F0.0
F0.25
tp2922
sS'hork'
p2923
(F0.0
F1.0
tp2924
sS'kommaneuker'
p2925
(F0.0
F0.75
tp2926
sS'herrieschopper'
p2927
(F0.0
F0.75
tp2928
sS'ontzettend'
p2929
(F0.0
F0.5
tp2930
sS'verwarrend'
p2931
(F0.0
F0.75
tp2932
sS'klankbord'
p2933
(F0.25
F0.0
tp2934
sS'stinker'
p2935
(F0.0
F1.0
tp2936
sS'dofheid'
p2937
(F0.0
F1.0
tp2938
sS'taart'
p2939
(F0.25
F0.0
tp2940
sS'onderbroken'
p2941
(F0.0
F0.25
tp2942
sS'rechtbreien'
p2943
(F0.0
F0.25
tp2944
sS'garantie'
p2945
(F0.75
F0.0
tp2946
sS'schuldige'
p2947
(F0.0
F1.0
tp2948
sS'tegenvaller'
p2949
(F0.0
F1.0
tp2950
sS'bevrijden'
p2951
(F0.5
F0.0
tp2952
sS'ignorant'
p2953
(F0.0
F0.5
tp2954
sS'apathie'
p2955
(F0.0
F0.5
tp2956
sS'onevenwichtig'
p2957
(F0.0
F0.75
tp2958
sS'huwelijksreis'
p2959
(F0.25
F0.0
tp2960
sS'competentie'
p2961
(F0.5
F0.0
tp2962
sS'rozegeur'
p2963
(F0.5
F0.0
tp2964
sS'vijand'
p2965
(F0.0
F1.0
tp2966
sS'verkeerd'
p2967
(F0.0
F0.75
tp2968
sS'oelewapper'
p2969
(F0.0
F1.0
tp2970
sS'hardnekkig'
p2971
(F0.0
F0.75
tp2972
sS'sukkel'
p2973
(F0.0
F1.0
tp2974
sS'vegeteren'
p2975
(F0.0
F0.5
tp2976
sS'leugenaar'
p2977
(F0.0
F1.0
tp2978
sS'hoerenbaas'
p2979
(F0.0
F0.5
tp2980
sS'vernederen'
p2981
(F0.0
F1.0
tp2982
sS'voorspelbaarheid'
p2983
(F0.0
F0.25
tp2984
sS'impasse'
p2985
(F0.0
F0.5
tp2986
sS'welsprekend'
p2987
(F1.0
F0.0
tp2988
sS'opdraven'
p2989
(F0.0
F0.25
tp2990
sS'ondeugend'
p2991
(F0.0
F0.5
tp2992
sS'aanvaller'
p2993
(F0.0
F0.25
tp2994
sS'mokkel'
p2995
(F0.25
F0.25
tp2996
sS'stommerik'
p2997
(F0.0
F1.0
tp2998
sS'ongeval'
p2999
(F0.0
F0.5
tp3000
sS'denkbaar'
p3001
(F0.25
F0.0
tp3002
sS'hechten'
p3003
(F0.25
F0.0
tp3004
sS'claim'
p3005
(F0.0
F0.25
tp3006
sS'crazy'
p3007
(F0.0
F0.75
tp3008
sS'onwettig'
p3009
(F0.0
F0.5
tp3010
sS'onnodig'
p3011
(F0.0
F0.75
tp3012
sS'dreutel'
p3013
(F0.0
F0.75
tp3014
sS'verschuilen'
p3015
(F0.0
F0.5
tp3016
sS'onmachtig'
p3017
(F0.0
F0.25
tp3018
sS'ongehoorzaamheid'
p3019
(F0.0
F0.75
tp3020
sS'tingelen'
p3021
(F0.0
F0.25
tp3022
sS'achtbaar'
p3023
(F0.5
F0.0
tp3024
sS'roddelen'
p3025
(F0.0
F0.75
tp3026
sS'reprimande'
p3027
(F0.0
F0.5
tp3028
sS'onbevredigend'
p3029
(F0.0
F1.0
tp3030
sS'chic'
p3031
(F0.75
F0.0
tp3032
sS'prijswinnaar'
p3033
(F1.0
F0.0
tp3034
sS'impedi\xc3\xabren'
p3035
(F0.0
F0.25
tp3036
sS'verwezenlijken'
p3037
(F0.75
F0.0
tp3038
sS'ontslaan'
p3039
(F0.0
F0.25
tp3040
sS'afpersen'
p3041
(F0.0
F1.0
tp3042
sS'mindervalide'
p3043
(F0.0
F0.25
tp3044
sS'nonchalant'
p3045
(F0.25
F0.25
tp3046
sS'warboel'
p3047
(F0.0
F1.0
tp3048
sS'eloquent'
p3049
(F0.5
F0.0
tp3050
sS'uitgemergeld'
p3051
(F0.0
F1.0
tp3052
sS'eerwaardig'
p3053
(F1.0
F0.0
tp3054
sS'aandoening'
p3055
(F0.0
F0.25
tp3056
sS'onverantwoord'
p3057
(F0.0
F1.0
tp3058
sS'koploper'
p3059
(F0.75
F0.0
tp3060
sS'schitteren'
p3061
(F1.0
F0.0
tp3062
sS'oppressie'
p3063
(F0.0
F0.5
tp3064
sS'helder'
p3065
(F1.0
F0.0
tp3066
sS'arresteren'
p3067
(F0.0
F0.25
tp3068
sS'ongezellig'
p3069
(F0.0
F1.0
tp3070
sS'hedonist'
p3071
(F0.0
F0.75
tp3072
sS'brandhout'
p3073
(F0.0
F0.25
tp3074
sS'ongunstig'
p3075
(F0.0
F1.0
tp3076
sS'circusvertoning'
p3077
(F0.0
F0.25
tp3078
sS'eenzaamheid'
p3079
(F0.0
F0.75
tp3080
sS'insekt'
p3081
(F0.0
F0.25
tp3082
sS'sensitief'
p3083
(F0.25
F0.0
tp3084
sS'grof'
p3085
(F0.0
F0.75
tp3086
sS'aanmoediging'
p3087
(F0.5
F0.0
tp3088
sS'verbranden'
p3089
(F0.0
F0.25
tp3090
sS'supersonisch'
p3091
(F1.0
F0.0
tp3092
sS'haantjesgedrag'
p3093
(F0.0
F0.5
tp3094
sS'maf'
p3095
(F0.0
F1.0
tp3096
sS'zatladder'
p3097
(F0.0
F0.75
tp3098
sS'lessen'
p3099
(F0.25
F0.0
tp3100
sS'opgewonden'
p3101
(F0.25
F0.0
tp3102
sS'placide'
p3103
(F0.25
F0.0
tp3104
sS'dove'
p3105
(F0.0
F0.5
tp3106
sS'gewelddelict'
p3107
(F0.0
F1.0
tp3108
sS'grot'
p3109
(F0.0
F0.25
tp3110
sS'onnozel'
p3111
(F0.0
F1.0
tp3112
sS'stress'
p3113
(F0.0
F0.75
tp3114
sS'gehaktbal'
p3115
(F0.0
F0.25
tp3116
sS'fantasievol'
p3117
(F1.0
F0.0
tp3118
sS'heldhaftigheid'
p3119
(F0.25
F0.0
tp3120
sS'stoken'
p3121
(F0.0
F0.5
tp3122
sS'stommiteit'
p3123
(F0.0
F1.0
tp3124
sS'esthetisch'
p3125
(F1.0
F0.0
tp3126
sS'lamzak'
p3127
(F0.0
F1.0
tp3128
sS'versleten'
p3129
(F0.0
F1.0
tp3130
sS'tegenstand'
p3131
(F0.0
F0.5
tp3132
sS'boemelaar'
p3133
(F0.0
F0.75
tp3134
sS'uitschakelen'
p3135
(F0.25
F0.25
tp3136
sS'gokken'
p3137
(F0.0
F0.5
tp3138
sS'pretmaker'
p3139
(F0.75
F0.0
tp3140
sS'grijns'
p3141
(F0.75
F0.0
tp3142
sS'accentueren'
p3143
(F0.25
F0.0
tp3144
sS'hoteldebotel'
p3145
(F0.75
F0.0
tp3146
sS'vervaarlijk'
p3147
(F0.0
F0.25
tp3148
sS'geraaskal'
p3149
(F0.0
F1.0
tp3150
sS'hol'
p3151
(F0.0
F0.25
tp3152
sS'weduwnaar'
p3153
(F0.0
F0.25
tp3154
sS'lazersteen'
p3155
(F0.0
F1.0
tp3156
sS'armzalig'
p3157
(F0.0
F1.0
tp3158
sS'doenlijk'
p3159
(F0.75
F0.0
tp3160
sS'opkrassen'
p3161
(F0.0
F1.0
tp3162
sS'ijver'
p3163
(F1.0
F0.0
tp3164
sS'apepak'
p3165
(F0.0
F0.5
tp3166
sS'lullen'
p3167
(F0.0
F1.0
tp3168
sS'onbeholpen'
p3169
(F0.0
F0.75
tp3170
sS'koeioneren'
p3171
(F0.0
F0.75
tp3172
sS'aantrekkelijk'
p3173
(F1.0
F0.0
tp3174
sS'dankbaarheid'
p3175
(F0.5
F0.0
tp3176
sS'hero\xc3\xafneverslaving'
p3177
(F0.0
F0.5
tp3178
sS'wrak'
p3179
(F0.0
F0.75
tp3180
sS'halvezool'
p3181
(F0.0
F1.0
tp3182
sS'loffelijk'
p3183
(F0.75
F0.0
tp3184
sS'lief'
p3185
(F1.0
F0.0
tp3186
sS'gefrustreerd'
p3187
(F0.0
F0.75
tp3188
sS'denker'
p3189
(F0.25
F0.0
tp3190
sS'uitvlakken'
p3191
(F0.0
F0.25
tp3192
sS'onmatig'
p3193
(F0.0
F0.75
tp3194
sS'bescheiden'
p3195
(F0.75
F0.0
tp3196
sS'stabiliseren'
p3197
(F0.25
F0.0
tp3198
sS'schoolkameraad'
p3199
(F0.25
F0.0
tp3200
sS'hooghartig'
p3201
(F0.0
F1.0
tp3202
sS'middelen'
p3203
(F0.25
F0.0
tp3204
sS'academisme'
p3205
(F0.0
F0.25
tp3206
sS'rouwdienst'
p3207
(F0.0
F0.5
tp3208
sS'dilettanterig'
p3209
(F0.0
F0.25
tp3210
sS'teleurgesteld'
p3211
(F0.0
F0.75
tp3212
sS'pessimistisch'
p3213
(F0.0
F1.0
tp3214
sS'larmoyant'
p3215
(F0.25
F0.0
tp3216
sS'antagonist'
p3217
(F0.0
F0.25
tp3218
sS'lieflijkheid'
p3219
(F1.0
F0.0
tp3220
sS'lieveling'
p3221
(F0.75
F0.0
tp3222
sS'gangmaker'
p3223
(F0.5
F0.0
tp3224
sS'boegbeeld'
p3225
(F0.25
F0.0
tp3226
sS'vaardig'
p3227
(F1.0
F0.0
tp3228
sS'bespraakt'
p3229
(F0.25
F0.0
tp3230
sS'droevig'
p3231
(F0.0
F1.0
tp3232
sS'tekortkoming'
p3233
(F0.0
F1.0
tp3234
sS'gebrekkig'
p3235
(F0.0
F1.0
tp3236
sS'smartengeld'
p3237
(F0.0
F0.5
tp3238
sS'treurigheid'
p3239
(F0.0
F1.0
tp3240
sS'flink'
p3241
(F0.75
F0.0
tp3242
sS'doodsimpel'
p3243
(F0.25
F0.5
tp3244
sS'viering'
p3245
(F0.25
F0.0
tp3246
sS'pokkenlijder'
p3247
(F0.0
F1.0
tp3248
sS'pauweveer'
p3249
(F0.25
F0.0
tp3250
sS'gastarbeider'
p3251
(F0.0
F0.25
tp3252
sS'misplaatst'
p3253
(F0.0
F0.75
tp3254
sS'voorwenden'
p3255
(F0.0
F0.25
tp3256
sS'doortraptheid'
p3257
(F0.0
F0.5
tp3258
sS'half'
p3259
(F0.0
F0.75
tp3260
sS'frustreren'
p3261
(F0.0
F1.0
tp3262
sS'raar'
p3263
(F0.0
F1.0
tp3264
sS'rentabiliteit'
p3265
(F0.5
F0.0
tp3266
sS'allrounder'
p3267
(F0.75
F0.0
tp3268
sS'bullshit'
p3269
(F0.0
F1.0
tp3270
sS'zwijnenboel'
p3271
(F0.0
F1.0
tp3272
sS'patsen'
p3273
(F0.0
F0.5
tp3274
sS'jolijt'
p3275
(F0.5
F0.0
tp3276
sS'ellendeling'
p3277
(F0.0
F1.0
tp3278
sS'winnaar'
p3279
(F1.0
F0.0
tp3280
sS'realist'
p3281
(F0.5
F0.0
tp3282
sS'werkzaam'
p3283
(F0.25
F0.0
tp3284
sS'jofel'
p3285
(F1.0
F0.0
tp3286
sS'aanbieden'
p3287
(F0.25
F0.0
tp3288
sS'delfstoffenkundige'
p3289
(F0.25
F0.0
tp3290
sS'luxueus'
p3291
(F0.5
F0.25
tp3292
sS'rehabiliteren'
p3293
(F0.5
F0.0
tp3294
sS'wond'
p3295
(F0.0
F0.5
tp3296
sS'ondergronds'
p3297
(F0.0
F0.25
tp3298
sS'zusje'
p3299
(F0.5
F0.0
tp3300
sS'allerbest'
p3301
(F1.0
F0.0
tp3302
sS'maagkatheter'
p3303
(F0.0
F0.25
tp3304
sS'opheffing'
p3305
(F0.0
F0.5
tp3306
sS'drol'
p3307
(F0.0
F0.75
tp3308
sS'hoogmoed'
p3309
(F0.0
F1.0
tp3310
sS'kattegejank'
p3311
(F0.0
F0.5
tp3312
sS'geselen'
p3313
(F0.0
F0.5
tp3314
sS'uitpersen'
p3315
(F0.0
F0.25
tp3316
sS'klets'
p3317
(F0.0
F0.5
tp3318
sS'rechtmatig'
p3319
(F1.0
F0.0
tp3320
sS'onwaardig'
p3321
(F0.0
F1.0
tp3322
sS'glansrijk'
p3323
(F1.0
F0.0
tp3324
sS'ontsteltenis'
p3325
(F0.0
F0.75
tp3326
sS'lam'
p3327
(F0.0
F0.25
tp3328
sS'zatlap'
p3329
(F0.0
F1.0
tp3330
sS'kleunen'
p3331
(F0.0
F0.5
tp3332
sS'barmhartigheid'
p3333
(F1.0
F0.0
tp3334
sS'moerhaas'
p3335
(F0.0
F0.5
tp3336
sS'gezelligheidsdier'
p3337
(F0.5
F0.0
tp3338
sS'onheilspellend'
p3339
(F0.0
F1.0
tp3340
sS'irritant'
p3341
(F0.0
F1.0
tp3342
sS'kwezel'
p3343
(F0.0
F0.75
tp3344
sS'sensibel'
p3345
(F0.25
F0.0
tp3346
sS'saamhorigheidsgevoel'
p3347
(F1.0
F0.0
tp3348
sS'kwastig'
p3349
(F0.0
F0.75
tp3350
sS'aandurven'
p3351
(F0.25
F0.0
tp3352
sS'negatief'
p3353
(F0.0
F1.0
tp3354
sS'hysterie'
p3355
(F0.0
F0.75
tp3356
sS'krap'
p3357
(F0.0
F0.5
tp3358
sS'zwammen'
p3359
(F0.0
F0.75
tp3360
sS'amusement'
p3361
(F0.5
F0.0
tp3362
sS'oneerlijk'
p3363
(F0.0
F1.0
tp3364
sS'favoriete'
p3365
(F0.5
F0.0
tp3366
sS'rijke'
p3367
(F0.75
F0.0
tp3368
sS'belonen'
p3369
(F0.25
F0.0
tp3370
sS'leugenachtig'
p3371
(F0.0
F1.0
tp3372
sS'chagrijn'
p3373
(F0.0
F1.0
tp3374
sS'capituleren'
p3375
(F0.0
F0.25
tp3376
sS'bereiken'
p3377
(F0.25
F0.25
tp3378
sS'godgevloekt'
p3379
(F0.0
F0.75
tp3380
sS'onrust'
p3381
(F0.0
F0.75
tp3382
sS'suggestibel'
p3383
(F0.0
F0.25
tp3384
sS'uitwissen'
p3385
(F0.0
F0.25
tp3386
sS'geestdrift'
p3387
(F1.0
F0.0
tp3388
sS'trauma'
p3389
(F0.0
F1.0
tp3390
sS'duister'
p3391
(F0.0
F0.5
tp3392
sS'oninteressant'
p3393
(F0.0
F1.0
tp3394
sS'wilskracht'
p3395
(F1.0
F0.0
tp3396
sS'geweldenaar'
p3397
(F0.0
F1.0
tp3398
sS'correct'
p3399
(F1.0
F0.0
tp3400
sS'opbouw'
p3401
(F0.25
F0.0
tp3402
sS'gedonderjaag'
p3403
(F0.0
F0.25
tp3404
sS'eervol'
p3405
(F1.0
F0.0
tp3406
sS'stuntelig'
p3407
(F0.0
F1.0
tp3408
sS'onderhoudend'
p3409
(F1.0
F0.0
tp3410
sS'heroiek'
p3411
(F0.75
F0.0
tp3412
sS'onvermurwbaar'
p3413
(F0.5
F0.25
tp3414
sS'wijf'
p3415
(F0.0
F0.5
tp3416
sS'wijd'
p3417
(F0.5
F0.0
tp3418
sS'verenigbaar'
p3419
(F0.75
F0.0
tp3420
sS'vervaardigen'
p3421
(F0.5
F0.0
tp3422
sS'honorabel'
p3423
(F1.0
F0.0
tp3424
sS'contribuant'
p3425
(F0.25
F0.0
tp3426
sS'speelbal'
p3427
(F0.0
F0.5
tp3428
sS'bekoelen'
p3429
(F0.0
F0.5
tp3430
sS'waanzinnige'
p3431
(F0.0
F0.75
tp3432
sS'platgaan'
p3433
(F0.25
F0.25
tp3434
sS'offensief'
p3435
(F0.0
F0.5
tp3436
sS'bliksemen'
p3437
(F0.0
F0.25
tp3438
sS'hinderlijk'
p3439
(F0.0
F1.0
tp3440
sS'appelflap'
p3441
(F0.0
F0.25
tp3442
sS'trien'
p3443
(F0.0
F0.5
tp3444
sS'verdorven'
p3445
(F0.0
F1.0
tp3446
sS'komedie'
p3447
(F0.25
F0.0
tp3448
sS'dwarsliggerig'
p3449
(F0.0
F0.75
tp3450
sS'dwaas'
p3451
(F0.0
F1.0
tp3452
sS'referent'
p3453
(F0.25
F0.0
tp3454
sS'ontaarding'
p3455
(F0.0
F0.25
tp3456
sS'slaapverwekkend'
p3457
(F0.0
F1.0
tp3458
sS'uitputting'
p3459
(F0.0
F0.75
tp3460
sS'significantie'
p3461
(F0.25
F0.0
tp3462
sS'ondankbaar'
p3463
(F0.0
F1.0
tp3464
sS'smiecht'
p3465
(F0.0
F1.0
tp3466
sS'roestvrij'
p3467
(F0.25
F0.0
tp3468
sS'flauwekul'
p3469
(F0.0
F1.0
tp3470
sS'rommelzooi'
p3471
(F0.0
F1.0
tp3472
sS'excellentie'
p3473
(F0.25
F0.0
tp3474
sS'geloof'
p3475
(F0.25
F0.0
tp3476
sS'verwerping'
p3477
(F0.0
F0.25
tp3478
sS'lamstraal'
p3479
(F0.0
F0.5
tp3480
sS'krachtig'
p3481
(F0.75
F0.0
tp3482
sS'bedelzak'
p3483
(F0.0
F0.5
tp3484
sS'uiteenspringen'
p3485
(F0.0
F0.5
tp3486
sS'miserie'
p3487
(F0.0
F0.5
tp3488
sS'luxeuitvoering'
p3489
(F0.25
F0.0
tp3490
sS'geschift'
p3491
(F0.0
F0.75
tp3492
sS'verbetering'
p3493
(F1.0
F0.0
tp3494
sS'medeleven'
p3495
(F0.5
F0.0
tp3496
sS'sfeervol'
p3497
(F1.0
F0.0
tp3498
sS'miezerig'
p3499
(F0.0
F1.0
tp3500
sS'beest'
p3501
(F0.0
F0.25
tp3502
sS'konkelen'
p3503
(F0.0
F0.75
tp3504
sS'gedurig'
p3505
(F0.25
F0.0
tp3506
sS'onpersoonlijk'
p3507
(F0.0
F0.75
tp3508
sS'fijn'
p3509
(F1.0
F0.0
tp3510
sS'open'
p3511
(F0.25
F0.0
tp3512
sS'accepteren'
p3513
(F0.5
F0.0
tp3514
sS'perversiteit'
p3515
(F0.0
F1.0
tp3516
sS'stigmatiseren'
p3517
(F0.0
F0.5
tp3518
sS'leegte'
p3519
(F0.0
F0.5
tp3520
sS'verblind'
p3521
(F0.0
F0.75
tp3522
sS'schaarste'
p3523
(F0.0
F0.25
tp3524
sS'abnormaliteit'
p3525
(F0.0
F0.5
tp3526
sS'verleidelijk'
p3527
(F0.75
F0.0
tp3528
sS'breed'
p3529
(F0.5
F0.0
tp3530
sS'duizelen'
p3531
(F0.0
F0.5
tp3532
sS'jeugdcriminaliteit'
p3533
(F0.0
F1.0
tp3534
sS'fanatiek'
p3535
(F0.5
F0.0
tp3536
sS'reumatiek'
p3537
(F0.0
F0.5
tp3538
sS'respectabel'
p3539
(F1.0
F0.0
tp3540
sS'ontberen'
p3541
(F0.0
F0.25
tp3542
sS'genezen'
p3543
(F0.5
F0.0
tp3544
sS'teruggetrokken'
p3545
(F0.0
F0.25
tp3546
sS'Fortuna'
p3547
(F0.25
F0.0
tp3548
sS'ongegrond'
p3549
(F0.0
F1.0
tp3550
sS'zwakte'
p3551
(F0.0
F0.5
tp3552
sS'zorgen'
p3553
(F0.25
F0.0
tp3554
sS'intolerantie'
p3555
(F0.0
F0.75
tp3556
sS'incoherentie'
p3557
(F0.0
F0.75
tp3558
sS'schunnigheid'
p3559
(F0.0
F1.0
tp3560
sS'gewrichtsziekte'
p3561
(F0.0
F0.25
tp3562
sS'duur'
p3563
(F0.0
F0.75
tp3564
sS'onnatuurlijk'
p3565
(F0.0
F0.5
tp3566
sS'besmetting'
p3567
(F0.0
F1.0
tp3568
sS'verslaving'
p3569
(F0.0
F0.75
tp3570
sS'oprotten'
p3571
(F0.0
F1.0
tp3572
sS'verzadigd'
p3573
(F0.25
F0.0
tp3574
sS'afbreken'
p3575
(F0.0
F0.25
tp3576
sS'snibben'
p3577
(F0.0
F0.75
tp3578
sS'triomf'
p3579
(F1.0
F0.0
tp3580
sS'omhaling'
p3581
(F0.25
F0.0
tp3582
sS'virulentie'
p3583
(F0.0
F0.5
tp3584
sS'doener'
p3585
(F0.5
F0.0
tp3586
sS'gehoorzaam'
p3587
(F0.75
F0.0
tp3588
sS'wegleggen'
p3589
(F0.0
F0.25
tp3590
sS'schijterd'
p3591
(F0.0
F1.0
tp3592
sS'groeten'
p3593
(F0.25
F0.0
tp3594
sS'beschimmeld'
p3595
(F0.0
F0.5
tp3596
sS'paniekzaaier'
p3597
(F0.0
F0.75
tp3598
sS'landrat'
p3599
(F0.0
F0.5
tp3600
sS'expatri\xc3\xabren'
p3601
(F0.0
F0.25
tp3602
sS'verbolgenheid'
p3603
(F0.0
F0.5
tp3604
sS'behagen'
p3605
(F0.5
F0.0
tp3606
sS'zuiverheid'
p3607
(F1.0
F0.0
tp3608
sS'verpletterend'
p3609
(F0.5
F0.0
tp3610
sS'vetrijk'
p3611
(F0.25
F0.25
tp3612
sS'onhandigheid'
p3613
(F0.0
F0.75
tp3614
sS'gnuiven'
p3615
(F0.0
F0.5
tp3616
sS'alles'
p3617
(F0.25
F0.0
tp3618
sS'onbeperkt'
p3619
(F0.5
F0.0
tp3620
sS'angel'
p3621
(F0.0
F0.25
tp3622
sS'mankeren'
p3623
(F0.0
F0.75
tp3624
sS'woesteling'
p3625
(F0.0
F0.5
tp3626
sS'geldig'
p3627
(F0.25
F0.0
tp3628
sS'nieuwsgierig'
p3629
(F0.5
F0.0
tp3630
sS'argument'
p3631
(F0.25
F0.0
tp3632
sS'slap'
p3633
(F0.0
F0.75
tp3634
sS'afdwingen'
p3635
(F0.0
F0.25
tp3636
sS'stigma'
p3637
(F0.0
F0.5
tp3638
sS'interesse'
p3639
(F1.0
F0.0
tp3640
sS'treurspel'
p3641
(F0.0
F0.75
tp3642
sS'dienstbaarheid'
p3643
(F0.75
F0.0
tp3644
sS'verstikken'
p3645
(F0.0
F0.75
tp3646
sS'openheid'
p3647
(F0.75
F0.0
tp3648
sS'perplex'
p3649
(F0.0
F0.25
tp3650
sS'parodie'
p3651
(F0.0
F0.25
tp3652
sS'beteuterd'
p3653
(F0.0
F1.0
tp3654
sS'wiking'
p3655
(F0.0
F0.25
tp3656
sS'voordelig'
p3657
(F0.75
F0.0
tp3658
sS'ontroerend'
p3659
(F0.5
F0.0
tp3660
sS'mondigheid'
p3661
(F0.25
F0.0
tp3662
sS'zeikerd'
p3663
(F0.0
F1.0
tp3664
sS'roekeloosheid'
p3665
(F0.0
F1.0
tp3666
sS'ineenkronkelen'
p3667
(F0.0
F0.75
tp3668
sS'geprikkeldheid'
p3669
(F0.0
F1.0
tp3670
sS'geklap'
p3671
(F0.25
F0.0
tp3672
sS'lulletje'
p3673
(F0.0
F1.0
tp3674
sS'benig'
p3675
(F0.0
F0.25
tp3676
sS'overschrijding'
p3677
(F0.0
F0.5
tp3678
sS'laag'
p3679
(F0.0
F0.5
tp3680
sS'astmatisch'
p3681
(F0.0
F0.25
tp3682
sS'uithaal'
p3683
(F0.0
F0.25
tp3684
sS'scheldwoord'
p3685
(F0.0
F0.25
tp3686
sS'schijntje'
p3687
(F0.25
F0.0
tp3688
sS'misvatting'
p3689
(F0.0
F0.5
tp3690
sS'volledig'
p3691
(F0.5
F0.0
tp3692
sS'ontdoen'
p3693
(F0.0
F0.25
tp3694
sS'onbekwaamheid'
p3695
(F0.0
F1.0
tp3696
sS'zeker'
p3697
(F0.25
F0.0
tp3698
sS'flatteren'
p3699
(F0.25
F0.0
tp3700
sS'vermoeienis'
p3701
(F0.0
F0.5
tp3702
sS'fris'
p3703
(F0.5
F0.0
tp3704
sS'lamheid'
p3705
(F0.0
F0.75
tp3706
sS'erkentelijkheid'
p3707
(F0.25
F0.0
tp3708
sS'schoonheidskoningin'
p3709
(F0.25
F0.0
tp3710
sS'schaduwzijde'
p3711
(F0.0
F0.75
tp3712
sS'vreemde'
p3713
(F0.0
F0.5
tp3714
sS'uitbundigheid'
p3715
(F1.0
F0.0
tp3716
sS'slurpen'
p3717
(F0.25
F0.0
tp3718
sS'poeperd'
p3719
(F0.25
F0.0
tp3720
sS'zwaarlijvig'
p3721
(F0.0
F0.25
tp3722
sS'proesten'
p3723
(F0.5
F0.0
tp3724
sS'nerveus'
p3725
(F0.0
F0.5
tp3726
sS'glamour'
p3727
(F0.5
F0.0
tp3728
sS'krankzinnige'
p3729
(F0.0
F1.0
tp3730
sS'verhard'
p3731
(F0.0
F0.25
tp3732
sS'kletskoek'
p3733
(F0.0
F1.0
tp3734
sS'deining'
p3735
(F0.0
F0.25
tp3736
sS'angst'
p3737
(F0.0
F1.0
tp3738
sS'zeper'
p3739
(F0.0
F0.5
tp3740
sS'geschil'
p3741
(F0.0
F0.75
tp3742
sS'verergeren'
p3743
(F0.0
F1.0
tp3744
sS'ingewikkeld'
p3745
(F0.0
F0.25
tp3746
sS'afstotelijk'
p3747
(F0.0
F1.0
tp3748
sS'braaksel'
p3749
(F0.0
F0.25
tp3750
sS'bewondering'
p3751
(F0.75
F0.0
tp3752
sS'speurhond'
p3753
(F0.25
F0.0
tp3754
sS'opportuun'
p3755
(F0.25
F0.0
tp3756
sS'opkomen'
p3757
(F0.25
F0.0
tp3758
sS'secundair'
p3759
(F0.0
F0.25
tp3760
sS'halfgod'
p3761
(F0.25
F0.0
tp3762
sS'geldgod'
p3763
(F0.0
F0.25
tp3764
sS'onprettig'
p3765
(F0.0
F0.75
tp3766
sS'onzelfzuchtig'
p3767
(F1.0
F0.0
tp3768
sS'sluw'
p3769
(F0.25
F0.25
tp3770
sS'effectiviteit'
p3771
(F0.5
F0.0
tp3772
sS'verspreken'
p3773
(F0.0
F0.5
tp3774
sS'overbluffen'
p3775
(F0.0
F0.25
tp3776
sS'wijsheid'
p3777
(F0.5
F0.0
tp3778
sS'azijnpisser'
p3779
(F0.0
F1.0
tp3780
sS'doorgewinterd'
p3781
(F0.75
F0.0
tp3782
sS'breedbekkikker'
p3783
(F0.0
F0.25
tp3784
sS'ongerechtigheid'
p3785
(F0.0
F1.0
tp3786
sS'oncomfortabel'
p3787
(F0.0
F0.5
tp3788
sS'inconsistent'
p3789
(F0.0
F0.5
tp3790
sS'onsamenhangendheid'
p3791
(F0.0
F1.0
tp3792
sS'zieke'
p3793
(F0.0
F0.5
tp3794
sS'teisteren'
p3795
(F0.0
F0.5
tp3796
sS'wachtgelder'
p3797
(F0.0
F0.25
tp3798
sS'nemesis'
p3799
(F0.0
F0.5
tp3800
sS'zakkig'
p3801
(F0.0
F1.0
tp3802
sS'verwonderen'
p3803
(F0.25
F0.0
tp3804
sS'agressieveling'
p3805
(F0.0
F0.5
tp3806
sS'klemmend'
p3807
(F0.0
F0.25
tp3808
sS'insinueren'
p3809
(F0.0
F0.25
tp3810
sS'interessant'
p3811
(F0.75
F0.0
tp3812
sS'verduveld'
p3813
(F0.0
F1.0
tp3814
sS'onbuigbaarheid'
p3815
(F0.0
F0.25
tp3816
sS'weerzinwekkend'
p3817
(F0.0
F1.0
tp3818
sS'daveren'
p3819
(F0.25
F0.0
tp3820
sS'dwaasheid'
p3821
(F0.0
F1.0
tp3822
sS'grinniken'
p3823
(F0.25
F0.0
tp3824
sS'kloek'
p3825
(F0.25
F0.0
tp3826
sS'vervuilen'
p3827
(F0.0
F0.75
tp3828
sS'edele'
p3829
(F1.0
F0.0
tp3830
sS'humorloos'
p3831
(F0.0
F1.0
tp3832
sS'B-film'
p3833
(F0.0
F0.5
tp3834
sS'raadgever'
p3835
(F0.25
F0.0
tp3836
sS'ongeorganiseerd'
p3837
(F0.0
F1.0
tp3838
sS'ondergraven'
p3839
(F0.0
F0.5
tp3840
sS'deerniswekkend'
p3841
(F0.0
F1.0
tp3842
sS'autoriteit'
p3843
(F0.5
F0.0
tp3844
sS'overtreffen'
p3845
(F0.75
F0.0
tp3846
sS'dreiner'
p3847
(F0.0
F1.0
tp3848
sS'inbraak'
p3849
(F0.0
F0.75
tp3850
sS'uitdoven'
p3851
(F0.0
F0.25
tp3852
sS'nep'
p3853
(F0.0
F1.0
tp3854
sS'goedgebekt'
p3855
(F1.0
F0.0
tp3856
sS'allochtoon'
p3857
(F0.0
F0.25
tp3858
sS'geven'
p3859
(F0.25
F0.0
tp3860
sS'vraagal'
p3861
(F0.0
F0.25
tp3862
sS'alleskunner'
p3863
(F1.0
F0.0
tp3864
sS'gek'
p3865
(F0.0
F1.0
tp3866
sS'aantoonbaar'
p3867
(F0.75
F0.0
tp3868
sS'mopperaar'
p3869
(F0.0
F1.0
tp3870
sS'hoerenjager'
p3871
(F0.0
F0.75
tp3872
sS'stuitend'
p3873
(F0.0
F1.0
tp3874
sS'schijthuis'
p3875
(F0.0
F0.75
tp3876
sS'prima'
p3877
(F1.0
F0.0
tp3878
sS'vuilak'
p3879
(F0.0
F1.0
tp3880
sS'held'
p3881
(F1.0
F0.0
tp3882
sS'sabotage'
p3883
(F0.0
F0.5
tp3884
sS'onverdroten'
p3885
(F0.25
F0.25
tp3886
sS'onmenselijkheid'
p3887
(F0.0
F1.0
tp3888
sS'attitude'
p3889
(F0.0
F0.25
tp3890
sS'inferieur'
p3891
(F0.0
F0.5
tp3892
sS'onintelligent'
p3893
(F0.0
F0.75
tp3894
sS'joker'
p3895
(F0.25
F0.0
tp3896
sS'sneren'
p3897
(F0.0
F0.5
tp3898
sS'buikgriep'
p3899
(F0.0
F0.25
tp3900
sS'wreedaard'
p3901
(F0.0
F1.0
tp3902
sS'eerbetoon'
p3903
(F1.0
F0.0
tp3904
sS'woest'
p3905
(F0.0
F1.0
tp3906
sS'toejuiching'
p3907
(F0.5
F0.0
tp3908
sS'smeerkees'
p3909
(F0.0
F1.0
tp3910
sS'hartstochtelijk'
p3911
(F1.0
F0.0
tp3912
sS'verdrietig'
p3913
(F0.0
F1.0
tp3914
sS'blitskikker'
p3915
(F0.25
F0.25
tp3916
sS'minnen'
p3917
(F0.25
F0.0
tp3918
sS'veinzen'
p3919
(F0.0
F0.5
tp3920
sS'teringzooi'
p3921
(F0.0
F1.0
tp3922
sS'handvaardig'
p3923
(F0.75
F0.0
tp3924
sS'stinkend'
p3925
(F0.0
F1.0
tp3926
sS'aanval'
p3927
(F0.0
F0.25
tp3928
sS'infractie'
p3929
(F0.0
F0.25
tp3930
sS'vermoeiend'
p3931
(F0.0
F0.75
tp3932
sS'hoogmoedig'
p3933
(F0.0
F1.0
tp3934
sS'goud'
p3935
(F0.25
F0.0
tp3936
sS'constellatie'
p3937
(F0.0
F0.25
tp3938
sS'afwijzen'
p3939
(F0.0
F0.5
tp3940
sS'ouwehoeren'
p3941
(F0.0
F1.0
tp3942
sS'paniekerig'
p3943
(F0.0
F1.0
tp3944
sS'onwetendheid'
p3945
(F0.0
F0.5
tp3946
sS'onrustbarend'
p3947
(F0.0
F1.0
tp3948
sS'nababbelen'
p3949
(F0.5
F0.0
tp3950
sS'doortastendheid'
p3951
(F0.75
F0.0
tp3952
sS'wonder'
p3953
(F1.0
F0.0
tp3954
sS'neurotisch'
p3955
(F0.0
F1.0
tp3956
sS'meewerken'
p3957
(F0.25
F0.0
tp3958
sS'kliek'
p3959
(F0.0
F0.25
tp3960
sS'inbezitneming'
p3961
(F0.0
F0.25
tp3962
sS'strijder'
p3963
(F1.0
F0.0
tp3964
sS'verboden'
p3965
(F0.0
F0.25
tp3966
sS'scherp'
p3967
(F0.75
F0.0
tp3968
sS'vaststellen'
p3969
(F0.25
F0.0
tp3970
sS'vergeefs'
p3971
(F0.0
F0.75
tp3972
sS'vaagheid'
p3973
(F0.0
F0.75
tp3974
sS'animositeit'
p3975
(F0.25
F0.0
tp3976
sS'pocher'
p3977
(F0.0
F1.0
tp3978
sS'knokker'
p3979
(F0.75
F0.0
tp3980
sS'tederheid'
p3981
(F1.0
F0.0
tp3982
sS'rendabel'
p3983
(F0.5
F0.0
tp3984
sS'flauw'
p3985
(F0.0
F0.5
tp3986
sS'lekker'
p3987
(F1.0
F0.0
tp3988
sS'benadeelde'
p3989
(F0.0
F1.0
tp3990
sS'beestachtig'
p3991
(F0.0
F0.25
tp3992
sS'praalhans'
p3993
(F0.0
F0.75
tp3994
sS'verregenen'
p3995
(F0.0
F0.25
tp3996
sS'verwording'
p3997
(F0.0
F0.25
tp3998
sS'nekkramp'
p3999
(F0.0
F0.25
tp4000
sS'verwezenlijking'
p4001
(F1.0
F0.0
tp4002
sS'corporaal'
p4003
(F0.0
F0.25
tp4004
sS'bekvechten'
p4005
(F0.0
F0.5
tp4006
sS'tut'
p4007
(F0.0
F1.0
tp4008
sS'scharrelvlees'
p4009
(F0.0
F0.25
tp4010
sS'neerslag'
p4011
(F0.0
F0.25
tp4012
sS'adept'
p4013
(F0.25
F0.0
tp4014
sS'begeerte'
p4015
(F0.25
F0.0
tp4016
sS'bedreiging'
p4017
(F0.0
F0.75
tp4018
sS'vriend'
p4019
(F0.5
F0.0
tp4020
sS'diverteren'
p4021
(F0.25
F0.25
tp4022
sS'grieven'
p4023
(F0.0
F0.75
tp4024
sS'comeback'
p4025
(F0.25
F0.0
tp4026
sS'samenleven'
p4027
(F0.25
F0.0
tp4028
sS'zottenpraat'
p4029
(F0.0
F1.0
tp4030
sS'branie'
p4031
(F0.25
F0.0
tp4032
sS'ontmoedigen'
p4033
(F0.0
F0.5
tp4034
sS'aromatisch'
p4035
(F0.75
F0.0
tp4036
sS'helleveeg'
p4037
(F0.0
F0.5
tp4038
sS'spijtig'
p4039
(F0.0
F1.0
tp4040
sS'superstar'
p4041
(F0.75
F0.0
tp4042
sS'afdoen'
p4043
(F0.0
F0.25
tp4044
sS'efficiency'
p4045
(F0.75
F0.0
tp4046
sS'verminkt'
p4047
(F0.0
F1.0
tp4048
sS'wereldranglijst'
p4049
(F0.25
F0.0
tp4050
sS'aansprakelijk'
p4051
(F0.0
F0.25
tp4052
sS'kregelig'
p4053
(F0.0
F0.25
tp4054
sS'heibel'
p4055
(F0.0
F0.5
tp4056
sS'valkuil'
p4057
(F0.0
F0.5
tp4058
sS'onderdeurtje'
p4059
(F0.0
F0.75
tp4060
sS'knoeierig'
p4061
(F0.0
F1.0
tp4062
sS'delirium'
p4063
(F0.0
F0.5
tp4064
sS'sleutelfiguur'
p4065
(F0.25
F0.0
tp4066
sS'langzaam'
p4067
(F0.0
F0.25
tp4068
sS'mafkikker'
p4069
(F0.0
F1.0
tp4070
sS'evenwichtig'
p4071
(F0.75
F0.0
tp4072
sS'schoonschrijver'
p4073
(F0.25
F0.0
tp4074
sS'gevarieerd'
p4075
(F0.25
F0.0
tp4076
sS'onveilig'
p4077
(F0.0
F1.0
tp4078
sS'welgesteld'
p4079
(F0.75
F0.0
tp4080
sS'lieverdje'
p4081
(F0.75
F0.0
tp4082
sS'overdrijving'
p4083
(F0.0
F0.75
tp4084
sS'prut'
p4085
(F0.0
F1.0
tp4086
sS'ondeugdelijk'
p4087
(F0.0
F1.0
tp4088
sS'onregelmatigheid'
p4089
(F0.0
F0.25
tp4090
sS'spitsboef'
p4091
(F0.0
F1.0
tp4092
sS'bangebroek'
p4093
(F0.0
F0.75
tp4094
sS'droogte'
p4095
(F0.0
F0.75
tp4096
sS'opgelaten'
p4097
(F0.0
F0.5
tp4098
sS'anti'
p4099
(F0.0
F0.75
tp4100
sS'gebrek'
p4101
(F0.0
F0.75
tp4102
sS'moord'
p4103
(F0.0
F0.75
tp4104
sS'steengoed'
p4105
(F1.0
F0.0
tp4106
sS'hangerig'
p4107
(F0.0
F1.0
tp4108
sS'ophemelen'
p4109
(F0.25
F0.0
tp4110
sS'uithollen'
p4111
(F0.0
F0.25
tp4112
sS'gein'
p4113
(F0.25
F0.0
tp4114
sS'arts'
p4115
(F0.25
F0.0
tp4116
sS'knudde'
p4117
(F0.0
F1.0
tp4118
sS'vijandig'
p4119
(F0.0
F1.0
tp4120
sS'veroordelen'
p4121
(F0.0
F0.5
tp4122
sS'lasterlijk'
p4123
(F0.0
F1.0
tp4124
sS'snel'
p4125
(F0.75
F0.0
tp4126
sS'rivaliteit'
p4127
(F0.0
F0.25
tp4128
sS'A-film'
p4129
(F0.5
F0.0
tp4130
sS'mefistofelisch'
p4131
(F0.0
F0.25
tp4132
sS'kleurrijk'
p4133
(F1.0
F0.0
tp4134
sS'verkeren'
p4135
(F0.25
F0.0
tp4136
sS'hongerdood'
p4137
(F0.0
F1.0
tp4138
sS'veroordeling'
p4139
(F0.0
F0.25
tp4140
sS'sneu'
p4141
(F0.0
F1.0
tp4142
sS'bekeuring'
p4143
(F0.0
F0.5
tp4144
sS'dictator'
p4145
(F0.0
F1.0
tp4146
sS'barre'
p4147
(F0.0
F0.5
tp4148
sS'doorstroming'
p4149
(F0.25
F0.0
tp4150
sS'normaal'
p4151
(F0.25
F0.0
tp4152
sS'ploeteren'
p4153
(F0.0
F0.75
tp4154
sS'afwezige'
p4155
(F0.0
F0.5
tp4156
sS'verlies'
p4157
(F0.0
F1.0
tp4158
sS'offeren'
p4159
(F0.0
F0.25
tp4160
sS'hersenaandoening'
p4161
(F0.0
F0.25
tp4162
sS'sinaasappelhuid'
p4163
(F0.0
F0.25
tp4164
sS'verheugd'
p4165
(F1.0
F0.0
tp4166
sS'crimineel'
p4167
(F0.0
F1.0
tp4168
sS'pesticide'
p4169
(F0.0
F0.25
tp4170
sS'geruststelling'
p4171
(F0.75
F0.0
tp4172
sS'bedreigend'
p4173
(F0.0
F1.0
tp4174
sS'druk'
p4175
(F0.0
F0.25
tp4176
sS'gratie'
p4177
(F0.75
F0.0
tp4178
sS'onoprecht'
p4179
(F0.0
F1.0
tp4180
sS'connaisseur'
p4181
(F0.5
F0.0
tp4182
sS'bespottelijk'
p4183
(F0.0
F0.5
tp4184
sS'bighot'
p4185
(F0.5
F0.0
tp4186
sS'knor'
p4187
(F0.0
F0.5
tp4188
sS'onberoerd'
p4189
(F0.25
F0.25
tp4190
sS'levensader'
p4191
(F0.25
F0.0
tp4192
sS'amant'
p4193
(F0.25
F0.0
tp4194
sS'overwinnen'
p4195
(F0.75
F0.0
tp4196
sS'deugddoend'
p4197
(F1.0
F0.0
tp4198
sS'vergeten'
p4199
(F0.0
F0.25
tp4200
sS'bedrieger'
p4201
(F0.0
F1.0
tp4202
sS'schijnheiligheid'
p4203
(F0.0
F1.0
tp4204
sS'levensvatbaarheid'
p4205
(F0.75
F0.0
tp4206
sS'kolderiek'
p4207
(F0.25
F0.0
tp4208
sS'pedant'
p4209
(F0.0
F0.5
tp4210
sS'integriteit'
p4211
(F0.5
F0.0
tp4212
sS'grauwen'
p4213
(F0.0
F0.25
tp4214
sS'opschorten'
p4215
(F0.0
F0.25
tp4216
sS'besluiteloos'
p4217
(F0.0
F0.75
tp4218
sS'ultra'
p4219
(F0.25
F0.0
tp4220
sS'gretig'
p4221
(F0.5
F0.5
tp4222
sS'trick'
p4223
(F0.25
F0.0
tp4224
sS'zeperd'
p4225
(F0.0
F0.5
tp4226
sS'merkwaardig'
p4227
(F0.0
F0.25
tp4228
sS'rechtvaardigen'
p4229
(F0.25
F0.0
tp4230
sS'fleuren'
p4231
(F0.5
F0.0
tp4232
sS'zwichten'
p4233
(F0.0
F0.5
tp4234
sS'dreigend'
p4235
(F0.0
F0.5
tp4236
sS'bruut'
p4237
(F0.0
F1.0
tp4238
sS'bevredigend'
p4239
(F1.0
F0.0
tp4240
sS'aanmoedigen'
p4241
(F0.5
F0.0
tp4242
sS'rijkelijk'
p4243
(F1.0
F0.0
tp4244
sS'geest'
p4245
(F0.25
F0.0
tp4246
sS'penthouse'
p4247
(F0.25
F0.0
tp4248
sS'bondgenoot'
p4249
(F0.25
F0.0
tp4250
sS'lamenteren'
p4251
(F0.0
F0.25
tp4252
sS'ontheffen'
p4253
(F0.25
F0.0
tp4254
sS'rammen'
p4255
(F0.0
F0.75
tp4256
sS'misrekening'
p4257
(F0.0
F0.75
tp4258
sS'loeier'
p4259
(F0.0
F0.25
tp4260
sS'vermindering'
p4261
(F0.0
F0.5
tp4262
sS'dissident'
p4263
(F0.0
F0.25
tp4264
sS'aardigheid'
p4265
(F1.0
F0.0
tp4266
sS'autodidact'
p4267
(F0.25
F0.0
tp4268
sS'bias'
p4269
(F0.0
F0.25
tp4270
sS'brutaliteit'
p4271
(F0.0
F1.0
tp4272
sS'jachttrofee'
p4273
(F0.25
F0.0
tp4274
sS'tastbaar'
p4275
(F0.5
F0.0
tp4276
sS'kopschuw'
p4277
(F0.0
F0.5
tp4278
sS'klessebessen'
p4279
(F0.5
F0.0
tp4280
sS'ironie'
p4281
(F0.0
F0.5
tp4282
sS'leidersfiguur'
p4283
(F0.25
F0.0
tp4284
sS'grootheid'
p4285
(F0.75
F0.0
tp4286
sS'ongebruikelijk'
p4287
(F0.0
F0.25
tp4288
sS'galbak'
p4289
(F0.0
F0.75
tp4290
sS'zalig'
p4291
(F0.5
F0.0
tp4292
sS'onfeilbaar'
p4293
(F0.75
F0.0
tp4294
sS'ruiterlijk'
p4295
(F0.75
F0.0
tp4296
sS'bekwaamheid'
p4297
(F1.0
F0.0
tp4298
sS'wijvenpraat'
p4299
(F0.0
F1.0
tp4300
sS'moeite'
p4301
(F0.0
F0.25
tp4302
sS'halfslachtig'
p4303
(F0.0
F0.5
tp4304
sS'pesten'
p4305
(F0.0
F0.75
tp4306
sS'rechtskundige'
p4307
(F0.25
F0.0
tp4308
sS'moeial'
p4309
(F0.0
F0.25
tp4310
sS'keutelen'
p4311
(F0.0
F0.75
tp4312
sS'slagen'
p4313
(F0.5
F0.0
tp4314
sS'gierigaard'
p4315
(F0.0
F1.0
tp4316
sS'schender'
p4317
(F0.0
F0.75
tp4318
sS'kwatsch'
p4319
(F0.0
F1.0
tp4320
sS'energiekeling'
p4321
(F0.5
F0.0
tp4322
sS'minnaar'
p4323
(F0.0
F0.25
tp4324
sS'omhelzen'
p4325
(F0.25
F0.0
tp4326
sS'misdrijf'
p4327
(F0.0
F1.0
tp4328
sS'optimistisch'
p4329
(F1.0
F0.0
tp4330
sS'tekort'
p4331
(F0.0
F1.0
tp4332
sS'kunstlied'
p4333
(F0.5
F0.0
tp4334
sS'ongerust'
p4335
(F0.0
F0.5
tp4336
sS'betreurenswaardig'
p4337
(F0.0
F1.0
tp4338
sS'gekibbel'
p4339
(F0.0
F1.0
tp4340
sS'onbeduidendheid'
p4341
(F0.0
F0.5
tp4342
sS'nemen'
p4343
(F0.0
F0.25
tp4344
sS'dwarsbomen'
p4345
(F0.0
F1.0
tp4346
sS'schattig'
p4347
(F0.75
F0.0
tp4348
sS'berusten'
p4349
(F0.25
F0.0
tp4350
sS'smeerlap'
p4351
(F0.0
F1.0
tp4352
sS'tegenspreken'
p4353
(F0.0
F0.25
tp4354
sS'uitrangeren'
p4355
(F0.0
F0.5
tp4356
sS'enthousiast'
p4357
(F1.0
F0.0
tp4358
sS'onverstaanbaar'
p4359
(F0.0
F1.0
tp4360
sS'opstandig'
p4361
(F0.0
F0.25
tp4362
sS'bondage'
p4363
(F0.0
F0.25
tp4364
sS'catastrofe'
p4365
(F0.0
F1.0
tp4366
sS'heengaan'
p4367
(F0.0
F0.5
tp4368
sS'autocraat'
p4369
(F0.0
F0.25
tp4370
sS'overkomen'
p4371
(F0.0
F0.25
tp4372
sS'revitaliseren'
p4373
(F0.5
F0.0
tp4374
sS'blokkeren'
p4375
(F0.0
F0.5
tp4376
sS'liefdadigheid'
p4377
(F0.75
F0.0
tp4378
sS'onvergeeflijk'
p4379
(F0.0
F1.0
tp4380
sS'omslachtig'
p4381
(F0.0
F0.75
tp4382
sS'stuntel'
p4383
(F0.0
F0.75
tp4384
sS'genie'
p4385
(F1.0
F0.0
tp4386
sS'verdachte'
p4387
(F0.0
F0.5
tp4388
sS'teruggeven'
p4389
(F0.25
F0.0
tp4390
sS'helderheid'
p4391
(F0.75
F0.0
tp4392
sS'raaskallen'
p4393
(F0.0
F1.0
tp4394
sS'objectief'
p4395
(F0.25
F0.0
tp4396
sS'avonturier'
p4397
(F0.5
F0.0
tp4398
sS'uitweiden'
p4399
(F0.0
F0.25
tp4400
sS'welsprekendheid'
p4401
(F1.0
F0.0
tp4402
sS'jammer'
p4403
(F0.0
F1.0
tp4404
sS'kostelijk'
p4405
(F0.75
F0.0
tp4406
sS'onbekwaam'
p4407
(F0.0
F1.0
tp4408
sS'kritiek'
p4409
(F0.0
F0.25
tp4410
sS'woestheid'
p4411
(F0.0
F1.0
tp4412
sS'toorn'
p4413
(F0.0
F0.5
tp4414
sS'Januskop'
p4415
(F0.0
F0.75
tp4416
sS'bedelen'
p4417
(F0.0
F0.25
tp4418
sS'beklaagde'
p4419
(F0.0
F0.5
tp4420
sS'gevecht'
p4421
(F0.0
F0.5
tp4422
sS'karakterloos'
p4423
(F0.0
F0.75
tp4424
sS'lastpak'
p4425
(F0.0
F0.5
tp4426
sS'nar'
p4427
(F0.0
F0.25
tp4428
sS'bestialiteit'
p4429
(F0.0
F0.5
tp4430
sS'bekrompen'
p4431
(F0.0
F0.5
tp4432
sS'winner'
p4433
(F1.0
F0.0
tp4434
sS'vervormen'
p4435
(F0.0
F0.25
tp4436
sS'verduren'
p4437
(F0.0
F0.5
tp4438
sS'ophitsen'
p4439
(F0.0
F0.5
tp4440
sS'pestilent'
p4441
(F0.0
F0.25
tp4442
sS'pafzak'
p4443
(F0.0
F1.0
tp4444
sS'hindernis'
p4445
(F0.0
F0.75
tp4446
sS'vooruitkomen'
p4447
(F0.5
F0.0
tp4448
sS'griezelig'
p4449
(F0.0
F0.75
tp4450
sS'leprozenhuis'
p4451
(F0.0
F0.25
tp4452
sS'vrede'
p4453
(F0.5
F0.0
tp4454
sS'verfijning'
p4455
(F1.0
F0.0
tp4456
sS'pottenkijker'
p4457
(F0.0
F1.0
tp4458
sS'zacht'
p4459
(F0.75
F0.0
tp4460
sS'kuttenkop'
p4461
(F0.0
F1.0
tp4462
sS'afschrikken'
p4463
(F0.0
F0.5
tp4464
sS'probleemloos'
p4465
(F0.75
F0.0
tp4466
sS'zwaargeschapen'
p4467
(F0.0
F0.5
tp4468
sS'billijk'
p4469
(F0.75
F0.0
tp4470
sS'gederangeerd'
p4471
(F0.0
F0.25
tp4472
sS'tragedie'
p4473
(F0.0
F0.75
tp4474
sS'beschuldigde'
p4475
(F0.0
F0.5
tp4476
sS'fascinerend'
p4477
(F1.0
F0.0
tp4478
sS'tij'
p4479
(F0.0
F0.25
tp4480
sS'bespotten'
p4481
(F0.0
F1.0
tp4482
sS'trendy'
p4483
(F1.0
F0.0
tp4484
sS'mop'
p4485
(F0.25
F0.0
tp4486
sS'demoraliserend'
p4487
(F0.0
F1.0
tp4488
sS'scrupules'
p4489
(F0.0
F0.5
tp4490
sS'mot'
p4491
(F0.0
F0.25
tp4492
sS'kille'
p4493
(F0.0
F0.5
tp4494
sS'rechterlijk'
p4495
(F0.25
F0.0
tp4496
sS'stunt'
p4497
(F0.0
F0.25
tp4498
sS'pieteit'
p4499
(F0.25
F0.0
tp4500
sS'schandvlek'
p4501
(F0.0
F1.0
tp4502
sS'tante'
p4503
(F0.0
F0.25
tp4504
sS'decadentie'
p4505
(F0.0
F0.5
tp4506
sS'misprijzen'
p4507
(F0.0
F1.0
tp4508
sS'knapperig'
p4509
(F0.5
F0.0
tp4510
sS'onwaarschijnlijk'
p4511
(F0.0
F0.5
tp4512
sS'achterlijk'
p4513
(F0.0
F1.0
tp4514
sS'ratelen'
p4515
(F0.0
F0.25
tp4516
sS'ongeluk'
p4517
(F0.0
F0.5
tp4518
sS'sarcastisch'
p4519
(F0.0
F0.5
tp4520
sS'meesterschap'
p4521
(F1.0
F0.0
tp4522
sS'smaden'
p4523
(F0.0
F0.25
tp4524
sS'onbillijk'
p4525
(F0.0
F1.0
tp4526
sS'vergankelijkheid'
p4527
(F0.0
F0.25
tp4528
sS'leek'
p4529
(F0.0
F0.25
tp4530
sS'anarchie'
p4531
(F0.0
F0.25
tp4532
sS'rechtvaardigheid'
p4533
(F1.0
F0.0
tp4534
sS'onderdak'
p4535
(F0.25
F0.0
tp4536
sS'uitverkorene'
p4537
(F1.0
F0.0
tp4538
sS'kannibaal'
p4539
(F0.0
F0.5
tp4540
sS'schaduwkant'
p4541
(F0.0
F0.75
tp4542
sS'potentie'
p4543
(F1.0
F0.0
tp4544
sS'herleven'
p4545
(F0.25
F0.0
tp4546
sS'satanisme'
p4547
(F0.0
F0.5
tp4548
sS'illusie'
p4549
(F0.0
F0.5
tp4550
sS'overtreding'
p4551
(F0.0
F0.75
tp4552
sS'sterken'
p4553
(F0.5
F0.0
tp4554
sS'ketter'
p4555
(F0.0
F1.0
tp4556
sS'naam'
p4557
(F0.25
F0.0
tp4558
sS'bescheuren'
p4559
(F0.25
F0.0
tp4560
sS'ophoepelen'
p4561
(F0.0
F1.0
tp4562
sS'volhouder'
p4563
(F1.0
F0.0
tp4564
sS'opportunisme'
p4565
(F0.25
F0.5
tp4566
sS'visionair'
p4567
(F0.25
F0.0
tp4568
sS'geleerde'
p4569
(F0.5
F0.0
tp4570
sS'poespas'
p4571
(F0.0
F1.0
tp4572
sS'rage'
p4573
(F0.0
F0.25
tp4574
sS'verkwikkelijk'
p4575
(F0.75
F0.0
tp4576
sS'haast'
p4577
(F0.0
F0.25
tp4578
sS'onrustig'
p4579
(F0.0
F0.25
tp4580
sS'ongefundeerd'
p4581
(F0.25
F0.5
tp4582
sS'intact'
p4583
(F1.0
F0.0
tp4584
sS'leeglopen'
p4585
(F0.0
F0.5
tp4586
sS'veinzerij'
p4587
(F0.0
F0.5
tp4588
sS'apekool'
p4589
(F0.0
F0.5
tp4590
sS'verfoeilijk'
p4591
(F0.0
F0.5
tp4592
sS'blijdschap'
p4593
(F1.0
F0.0
tp4594
sS'synoptisch'
p4595
(F0.25
F0.0
tp4596
sS'vermoeid'
p4597
(F0.0
F1.0
tp4598
sS'mooi'
p4599
(F1.0
F0.0
tp4600
sS'onfris'
p4601
(F0.0
F0.5
tp4602
sS'overdonderen'
p4603
(F0.0
F0.25
tp4604
sS'onnauwkeurigheid'
p4605
(F0.0
F1.0
tp4606
sS'hepatitis'
p4607
(F0.0
F0.25
tp4608
sS'jammeren'
p4609
(F0.0
F0.5
tp4610
sS'uitklinken'
p4611
(F0.5
F0.0
tp4612
sS'welvaren'
p4613
(F0.75
F0.0
tp4614
sS'verloochening'
p4615
(F0.0
F0.5
tp4616
sS'kunst-en-vliegwerk'
p4617
(F0.25
F0.25
tp4618
sS'achteruitgaan'
p4619
(F0.0
F0.75
tp4620
sS'willig'
p4621
(F0.5
F0.25
tp4622
sS'moordenaar'
p4623
(F0.0
F0.75
tp4624
sS'lelijkerd'
p4625
(F0.0
F1.0
tp4626
sS'overstelpen'
p4627
(F0.0
F0.25
tp4628
sS'leeuw'
p4629
(F0.0
F0.25
tp4630
sS'foutief'
p4631
(F0.0
F0.75
tp4632
sS'verschrikking'
p4633
(F0.0
F1.0
tp4634
sS'eenkennig'
p4635
(F0.0
F0.5
tp4636
sS'verbeteren'
p4637
(F0.25
F0.0
tp4638
sS'assisteren'
p4639
(F0.25
F0.0
tp4640
sS'afzweren'
p4641
(F0.25
F0.0
tp4642
sS'lusteloosheid'
p4643
(F0.0
F1.0
tp4644
sS'graag'
p4645
(F0.75
F0.0
tp4646
sS'barbaarsheid'
p4647
(F0.0
F1.0
tp4648
sS'zakelijk'
p4649
(F0.25
F0.0
tp4650
sS'kansloos'
p4651
(F0.0
F1.0
tp4652
sS'neutraliseren'
p4653
(F0.0
F0.25
tp4654
sS'edelmoedig'
p4655
(F1.0
F0.0
tp4656
sS'kaffer'
p4657
(F0.0
F1.0
tp4658
sS'wijs'
p4659
(F0.5
F0.0
tp4660
sS'pluspool'
p4661
(F0.25
F0.0
tp4662
sS'trekken'
p4663
(F0.0
F0.25
tp4664
sS'zwarthemden'
p4665
(F0.0
F0.75
tp4666
sS'ongevallig'
p4667
(F0.0
F1.0
tp4668
sS'blijheid'
p4669
(F1.0
F0.0
tp4670
sS'smeerpoes'
p4671
(F0.0
F1.0
tp4672
sS'excentriek'
p4673
(F0.5
F0.0
tp4674
sS'gissing'
p4675
(F0.0
F0.25
tp4676
sS'beestenboel'
p4677
(F0.0
F0.25
tp4678
sS'ongekwalificeerd'
p4679
(F0.0
F1.0
tp4680
sS'dweil'
p4681
(F0.0
F0.5
tp4682
sS'onredelijk'
p4683
(F0.0
F1.0
tp4684
sS'doelloos'
p4685
(F0.0
F0.75
tp4686
sS'onverstandig'
p4687
(F0.0
F1.0
tp4688
sS'vergelding'
p4689
(F0.0
F0.5
tp4690
sS'pietjesneuker'
p4691
(F0.0
F1.0
tp4692
sS'bonje'
p4693
(F0.0
F0.5
tp4694
sS'imago'
p4695
(F0.25
F0.0
tp4696
sS'argwanend'
p4697
(F0.0
F1.0
tp4698
sS'ru\xc3\xafne'
p4699
(F0.0
F0.25
tp4700
sS'renonceren'
p4701
(F0.0
F0.25
tp4702
sS'ziedend'
p4703
(F0.0
F1.0
tp4704
sS'sleets'
p4705
(F0.0
F0.75
tp4706
sS'drab'
p4707
(F0.0
F1.0
tp4708
sS'feitelijk'
p4709
(F0.25
F0.0
tp4710
sS'stomkop'
p4711
(F0.0
F1.0
tp4712
sS'volharding'
p4713
(F0.5
F0.0
tp4714
sS'desillusie'
p4715
(F0.0
F1.0
tp4716
sS'waakhond'
p4717
(F0.25
F0.0
tp4718
sS'toestaan'
p4719
(F0.25
F0.0
tp4720
sS'wilde'
p4721
(F0.0
F0.5
tp4722
sS'vergeetachtig'
p4723
(F0.0
F0.75
tp4724
sS'kundig'
p4725
(F1.0
F0.0
tp4726
sS'onconventioneel'
p4727
(F0.0
F0.25
tp4728
sS'gedoe'
p4729
(F0.0
F1.0
tp4730
sS'lazeren'
p4731
(F0.0
F0.5
tp4732
sS'dwalen'
p4733
(F0.0
F0.5
tp4734
sS'bevallen'
p4735
(F0.25
F0.0
tp4736
sS'drammer'
p4737
(F0.0
F1.0
tp4738
sS'ondenkbaar'
p4739
(F0.0
F0.5
tp4740
sS'beletsel'
p4741
(F0.0
F0.5
tp4742
sS'omtuimelen'
p4743
(F0.0
F0.25
tp4744
sS'trucfilm'
p4745
(F0.0
F0.25
tp4746
sS'muggeziften'
p4747
(F0.0
F0.5
tp4748
sS'openblijven'
p4749
(F0.75
F0.0
tp4750
sS'afschuiven'
p4751
(F0.0
F0.25
tp4752
sS'verstotene'
p4753
(F0.0
F0.75
tp4754
sS'onredelijkheid'
p4755
(F0.0
F1.0
tp4756
sS'aankleding'
p4757
(F0.25
F0.0
tp4758
sS'wantrouwig'
p4759
(F0.0
F0.75
tp4760
sS'lol'
p4761
(F0.75
F0.0
tp4762
sS'roes'
p4763
(F0.0
F0.25
tp4764
sS'trouweloos'
p4765
(F0.0
F1.0
tp4766
sS'lefgozer'
p4767
(F0.75
F0.0
tp4768
sS'krocht'
p4769
(F0.0
F0.25
tp4770
sS'mierenneuker'
p4771
(F0.0
F1.0
tp4772
sS'triomfator'
p4773
(F0.25
F0.0
tp4774
sS'schuldgevoel'
p4775
(F0.0
F0.5
tp4776
sS'hel'
p4777
(F0.0
F1.0
tp4778
sS'doorliggen'
p4779
(F0.0
F0.25
tp4780
sS'muggezifter'
p4781
(F0.0
F0.75
tp4782
sS'tolerantie'
p4783
(F0.75
F0.0
tp4784
sS'konkelfoezen'
p4785
(F0.0
F0.75
tp4786
sS'bochtig'
p4787
(F0.0
F0.5
tp4788
sS'fabrieksmerk'
p4789
(F0.0
F0.5
tp4790
sS'kolder'
p4791
(F0.0
F0.25
tp4792
sS'ontploffen'
p4793
(F0.0
F0.25
tp4794
sS'lieverd'
p4795
(F1.0
F0.0
tp4796
sS'vergaan'
p4797
(F0.0
F0.75
tp4798
sS'pragmatisch'
p4799
(F0.25
F0.0
tp4800
sS'leerzaam'
p4801
(F1.0
F0.0
tp4802
sS'ondergeschikt'
p4803
(F0.0
F0.75
tp4804
sS'vrind'
p4805
(F0.75
F0.0
tp4806
sS'woordenstrijd'
p4807
(F0.0
F0.5
tp4808
sS'zonnesteek'
p4809
(F0.0
F0.25
tp4810
sS'verlaten'
p4811
(F0.0
F0.25
tp4812
sS'besluitvaardig'
p4813
(F1.0
F0.0
tp4814
sS'onuitwisbaar'
p4815
(F0.5
F0.25
tp4816
sS'sulligheid'
p4817
(F0.0
F1.0
tp4818
sS'nadelig'
p4819
(F0.0
F1.0
tp4820
sS'mateloos'
p4821
(F0.0
F0.75
tp4822
sS'verontwaardigd'
p4823
(F0.0
F0.5
tp4824
sS'kniezer'
p4825
(F0.0
F0.75
tp4826
sS'zeurkous'
p4827
(F0.0
F1.0
tp4828
sS'dictatoriaal'
p4829
(F0.0
F0.5
tp4830
sS'ondoorzichtig'
p4831
(F0.25
F0.0
tp4832
sS'oranje'
p4833
(F0.25
F0.0
tp4834
sS'flirt'
p4835
(F0.25
F0.0
tp4836
sS'gedonder'
p4837
(F0.0
F0.75
tp4838
sS'deloyaal'
p4839
(F0.0
F0.75
tp4840
sS'oorlogskerkhof'
p4841
(F0.0
F0.5
tp4842
sS'stommeling'
p4843
(F0.0
F1.0
tp4844
sS'plaag'
p4845
(F0.0
F1.0
tp4846
sS'beloning'
p4847
(F0.75
F0.0
tp4848
sS'toenadering'
p4849
(F0.5
F0.0
tp4850
sS'landerigheid'
p4851
(F0.0
F0.25
tp4852
sS'ongekunsteldheid'
p4853
(F0.5
F0.0
tp4854
sS'rust'
p4855
(F1.0
F0.0
tp4856
sS'niksnakker'
p4857
(F0.0
F1.0
tp4858
sS'kwetsen'
p4859
(F0.0
F0.5
tp4860
sS'af'
p4861
(F0.25
F0.0
tp4862
sS'hersenbloeding'
p4863
(F0.0
F0.25
tp4864
sS'oudje'
p4865
(F0.0
F0.5
tp4866
sS'destroyer'
p4867
(F0.0
F1.0
tp4868
sS'censor'
p4869
(F0.0
F0.25
tp4870
sS'deplorabel'
p4871
(F0.0
F0.5
tp4872
sS'noodhulp'
p4873
(F0.0
F0.25
tp4874
sS'bekoorlijk'
p4875
(F1.0
F0.0
tp4876
sS'sufkont'
p4877
(F0.0
F1.0
tp4878
sS'opsodemieteren'
p4879
(F0.0
F1.0
tp4880
sS'fenomenaal'
p4881
(F1.0
F0.0
tp4882
sS'spectaculair'
p4883
(F1.0
F0.0
tp4884
sS'prominentie'
p4885
(F0.25
F0.0
tp4886
sS'gram'
p4887
(F0.0
F0.25
tp4888
sS'incorrect'
p4889
(F0.0
F1.0
tp4890
sS'pieterig'
p4891
(F0.0
F0.5
tp4892
sS'intimidatie'
p4893
(F0.0
F1.0
tp4894
sS'suggereren'
p4895
(F0.25
F0.0
tp4896
sS'fantasieloos'
p4897
(F0.0
F1.0
tp4898
sS'onbegrip'
p4899
(F0.0
F0.75
tp4900
sS'bokkig'
p4901
(F0.0
F1.0
tp4902
sS'goedkoop'
p4903
(F0.0
F0.5
tp4904
sS'compleet'
p4905
(F0.5
F0.0
tp4906
sS'zegenrijk'
p4907
(F0.75
F0.0
tp4908
sS'korzelig'
p4909
(F0.0
F0.5
tp4910
sS'pronkzuchtig'
p4911
(F0.0
F0.75
tp4912
sS'zwavel'
p4913
(F0.0
F0.25
tp4914
sS'juist'
p4915
(F0.75
F0.0
tp4916
sS'zijgalerij'
p4917
(F0.0
F0.25
tp4918
sS'ongewettigd'
p4919
(F0.0
F1.0
tp4920
sS'delicatesse'
p4921
(F0.5
F0.0
tp4922
sS'kelerelijder'
p4923
(F0.0
F1.0
tp4924
sS'oneerbaar'
p4925
(F0.0
F1.0
tp4926
sS'plakken'
p4927
(F0.0
F0.5
tp4928
sS'repressie'
p4929
(F0.0
F0.5
tp4930
sS'tateren'
p4931
(F0.0
F0.5
tp4932
sS'doordringend'
p4933
(F0.25
F0.25
tp4934
sS'lijfeigene'
p4935
(F0.0
F0.25
tp4936
sS'vieren'
p4937
(F0.5
F0.0
tp4938
sS'moerasdamp'
p4939
(F0.0
F0.25
tp4940
sS'zwijnestal'
p4941
(F0.0
F1.0
tp4942
sS'verzuim'
p4943
(F0.0
F0.5
tp4944
sS'ontzag'
p4945
(F0.25
F0.0
tp4946
sS'overweldigen'
p4947
(F0.5
F0.25
tp4948
sS'drift'
p4949
(F0.0
F0.25
tp4950
sS'wegvluchten'
p4951
(F0.0
F0.25
tp4952
sS'ziel'
p4953
(F0.25
F0.0
tp4954
sS'slank'
p4955
(F0.75
F0.0
tp4956
sS'goudzoeker'
p4957
(F0.25
F0.0
tp4958
sS'vervulling'
p4959
(F0.25
F0.0
tp4960
sS'verachten'
p4961
(F0.0
F1.0
tp4962
sS'schromelijk'
p4963
(F0.0
F0.5
tp4964
sS'schijter'
p4965
(F0.0
F1.0
tp4966
sS'larie'
p4967
(F0.0
F1.0
tp4968
sS'heerlijkheden'
p4969
(F1.0
F0.0
tp4970
sS'slang'
p4971
(F0.0
F0.25
tp4972
sS'nachtmerrie'
p4973
(F0.0
F0.5
tp4974
sS'beminnaar'
p4975
(F0.25
F0.0
tp4976
sS'woestijn'
p4977
(F0.0
F0.25
tp4978
sS'wraakgodin'
p4979
(F0.0
F0.25
tp4980
sS'poten'
p4981
(F0.0
F0.5
tp4982
sS'eitje'
p4983
(F0.5
F0.0
tp4984
sS'oervervelend'
p4985
(F0.0
F1.0
tp4986
sS'risico'
p4987
(F0.0
F0.5
tp4988
sS'confronteren'
p4989
(F0.0
F0.25
tp4990
sS'patricisch'
p4991
(F0.0
F0.25
tp4992
sS'groot'
p4993
(F0.25
F0.0
tp4994
sS'overschaduwen'
p4995
(F0.25
F0.5
tp4996
sS'buitenechtelijk'
p4997
(F0.0
F1.0
tp4998
sS'promotor'
p4999
(F0.25
F0.0
tp5000
sS'gloed'
p5001
(F0.25
F0.0
tp5002
sS'gramschap'
p5003
(F0.0
F0.5
tp5004
sS'lamentabel'
p5005
(F0.0
F0.5
tp5006
sS'klager'
p5007
(F0.0
F0.75
tp5008
sS'onhaalbaar'
p5009
(F0.0
F0.25
tp5010
sS'zwaargewicht'
p5011
(F0.25
F0.0
tp5012
sS'spuiter'
p5013
(F0.0
F0.25
tp5014
sS'wegstromen'
p5015
(F0.0
F0.25
tp5016
sS'wijden'
p5017
(F0.25
F0.0
tp5018
sS'koopje'
p5019
(F0.5
F0.0
tp5020
sS'lichtgelovig'
p5021
(F0.0
F0.5
tp5022
sS'depressiviteit'
p5023
(F0.0
F1.0
tp5024
sS'beschuldigen'
p5025
(F0.0
F0.75
tp5026
sS'onmens'
p5027
(F0.0
F1.0
tp5028
sS'meedogenloos'
p5029
(F0.0
F1.0
tp5030
sS'luister'
p5031
(F0.25
F0.0
tp5032
sS'favoriet'
p5033
(F1.0
F0.0
tp5034
sS'onvoordelig'
p5035
(F0.0
F1.0
tp5036
sS'verraad'
p5037
(F0.0
F1.0
tp5038
sS'vakvrouw'
p5039
(F0.5
F0.0
tp5040
sS'zonnig'
p5041
(F1.0
F0.0
tp5042
sS'droefgeestig'
p5043
(F0.0
F1.0
tp5044
sS'etterbak'
p5045
(F0.0
F1.0
tp5046
sS'vereenzaamd'
p5047
(F0.0
F0.75
tp5048
sS'infiltrant'
p5049
(F0.0
F0.5
tp5050
sS'werkeloos'
p5051
(F0.0
F0.75
tp5052
sS'ongedurigheid'
p5053
(F0.0
F0.5
tp5054
sS'luiaard'
p5055
(F0.0
F0.5
tp5056
sS'co\xc3\xb6peratief'
p5057
(F1.0
F0.0
tp5058
sS'lariekoek'
p5059
(F0.0
F1.0
tp5060
sS'fanaticus'
p5061
(F0.0
F0.25
tp5062
sS'grogstem'
p5063
(F0.0
F0.25
tp5064
sS'vermogend'
p5065
(F1.0
F0.0
tp5066
sS'roekeloos'
p5067
(F0.0
F1.0
tp5068
sS'gunsteling'
p5069
(F0.25
F0.5
tp5070
sS'verrader'
p5071
(F0.0
F1.0
tp5072
sS'dichterbij'
p5073
(F0.25
F0.0
tp5074
sS'gangsterliefje'
p5075
(F0.0
F0.25
tp5076
sS'zelfzuchtig'
p5077
(F0.0
F0.5
tp5078
sS'blijde'
p5079
(F1.0
F0.0
tp5080
sS'motten'
p5081
(F0.0
F0.75
tp5082
sS'stinken'
p5083
(F0.0
F0.5
tp5084
sS'realisering'
p5085
(F0.5
F0.0
tp5086
sS'dakloze'
p5087
(F0.0
F0.25
tp5088
sS'remming'
p5089
(F0.0
F0.25
tp5090
sS'losbandig'
p5091
(F0.0
F0.5
tp5092
sS'knokig'
p5093
(F0.0
F0.75
tp5094
sS'doodmoe'
p5095
(F0.0
F0.5
tp5096
sS'tyfuslijer'
p5097
(F0.0
F1.0
tp5098
sS'stagnatie'
p5099
(F0.0
F0.5
tp5100
sS'misgreep'
p5101
(F0.0
F0.75
tp5102
sS'horror'
p5103
(F0.0
F0.75
tp5104
sS'ontraden'
p5105
(F0.0
F0.25
tp5106
sS'oppervlakkig'
p5107
(F0.0
F0.75
tp5108
sS'kommerlijk'
p5109
(F0.0
F0.5
tp5110
sS'bijstandsvrouw'
p5111
(F0.0
F0.25
tp5112
sS'voornaam'
p5113
(F0.25
F0.0
tp5114
sS'fan'
p5115
(F0.5
F0.0
tp5116
sS'schaamteloos'
p5117
(F0.0
F0.75
tp5118
sS'gierstroom'
p5119
(F0.0
F0.25
tp5120
sS'authentiek'
p5121
(F1.0
F0.0
tp5122
sS'dapper'
p5123
(F1.0
F0.0
tp5124
sS'bollebof'
p5125
(F0.25
F0.25
tp5126
sS'onruststoker'
p5127
(F0.0
F1.0
tp5128
sS'productie'
p5129
(F0.25
F0.0
tp5130
sS'papzak'
p5131
(F0.0
F1.0
tp5132
sS'ongepermitteerd'
p5133
(F0.0
F0.75
tp5134
sS'godsgezant'
p5135
(F0.5
F0.0
tp5136
sS'tenger'
p5137
(F0.0
F0.5
tp5138
sS'uitgeteerd'
p5139
(F0.0
F0.5
tp5140
sS'ontoegankelijk'
p5141
(F0.0
F0.75
tp5142
sS'ambivalentie'
p5143
(F0.0
F0.25
tp5144
sS'list'
p5145
(F0.25
F0.25
tp5146
sS'oproerkraaier'
p5147
(F0.0
F1.0
tp5148
sS'snert'
p5149
(F0.25
F0.25
tp5150
sS'ontrouw'
p5151
(F0.0
F0.75
tp5152
sS'vervaardiging'
p5153
(F0.5
F0.0
tp5154
sS'onaangenaamheid'
p5155
(F0.0
F1.0
tp5156
sS'provoceren'
p5157
(F0.0
F0.75
tp5158
sS'onhandig'
p5159
(F0.0
F0.75
tp5160
sS'biecht'
p5161
(F0.0
F0.25
tp5162
sS'zwakjes'
p5163
(F0.0
F0.75
tp5164
sS'belachelijk'
p5165
(F0.0
F0.75
tp5166
sS'lauw'
p5167
(F0.25
F0.5
tp5168
sS'proefkonijn'
p5169
(F0.0
F0.25
tp5170
sS'eliminatie'
p5171
(F0.0
F0.5
tp5172
sS'krijgshaftigheid'
p5173
(F0.25
F0.0
tp5174
sS'verrekt'
p5175
(F0.25
F0.5
tp5176
sS'verstandsmens'
p5177
(F0.25
F0.0
tp5178
sS'mesjoche'
p5179
(F0.0
F1.0
tp5180
sS'schichtig'
p5181
(F0.0
F0.5
tp5182
sS'onderschatting'
p5183
(F0.0
F0.5
tp5184
sS'stabiliteit'
p5185
(F0.75
F0.0
tp5186
sS'haat'
p5187
(F0.0
F0.75
tp5188
sS'ergeren'
p5189
(F0.0
F0.75
tp5190
sS'teloorgang'
p5191
(F0.0
F1.0
tp5192
sS'ordelijk'
p5193
(F1.0
F0.0
tp5194
sS'kwebbelen'
p5195
(F0.0
F0.75
tp5196
sS'gifbeker'
p5197
(F0.0
F0.5
tp5198
sS'omschieten'
p5199
(F0.0
F0.25
tp5200
sS'onaangenaamheden'
p5201
(F0.0
F1.0
tp5202
sS'suf'
p5203
(F0.0
F1.0
tp5204
sS'vermaak'
p5205
(F1.0
F0.0
tp5206
sS'inpikken'
p5207
(F0.0
F0.75
tp5208
sS'verwaarlozing'
p5209
(F0.0
F1.0
tp5210
sS'noodlottig'
p5211
(F0.0
F1.0
tp5212
sS'liefdeloos'
p5213
(F0.0
F1.0
tp5214
sS'schijnproces'
p5215
(F0.0
F1.0
tp5216
sS'slobberig'
p5217
(F0.0
F1.0
tp5218
sS'vervalsing'
p5219
(F0.0
F0.5
tp5220
sS'belemmering'
p5221
(F0.0
F0.75
tp5222
sS'gevoelsarm'
p5223
(F0.0
F1.0
tp5224
sS'verneukerij'
p5225
(F0.0
F1.0
tp5226
sS'handig'
p5227
(F1.0
F0.0
tp5228
sS'wegsturen'
p5229
(F0.0
F0.25
tp5230
sS'schandpaal'
p5231
(F0.0
F1.0
tp5232
sS'destructie'
p5233
(F0.0
F0.5
tp5234
sS'eerbied'
p5235
(F1.0
F0.0
tp5236
sS'verveeld'
p5237
(F0.0
F1.0
tp5238
sS'leunen'
p5239
(F0.25
F0.0
tp5240
sS'onvriendelijk'
p5241
(F0.0
F1.0
tp5242
sS'godslasterlijk'
p5243
(F0.0
F0.75
tp5244
sS'manipuleren'
p5245
(F0.0
F0.75
tp5246
sS'stront'
p5247
(F0.0
F0.75
tp5248
sS'dubbelzinnig'
p5249
(F0.0
F0.25
tp5250
sS'breidelloos'
p5251
(F0.0
F0.5
tp5252
sS'kneus'
p5253
(F0.0
F1.0
tp5254
sS'congestie'
p5255
(F0.0
F0.25
tp5256
sS'verworpeling'
p5257
(F0.0
F0.25
tp5258
sS'toelaten'
p5259
(F0.25
F0.0
tp5260
sS'uitvegen'
p5261
(F0.0
F0.25
tp5262
sS'begoochelen'
p5263
(F0.0
F0.25
tp5264
sS'conservatief'
p5265
(F0.0
F0.25
tp5266
sS'respect'
p5267
(F0.75
F0.0
tp5268
sS'gespannen'
p5269
(F0.0
F0.25
tp5270
sS'mijnheer'
p5271
(F0.25
F0.0
tp5272
sS'geweeklaag'
p5273
(F0.0
F1.0
tp5274
sS'deugd'
p5275
(F1.0
F0.0
tp5276
sS'melancholie'
p5277
(F0.0
F0.5
tp5278
sS'toekomstdenker'
p5279
(F0.25
F0.0
tp5280
sS'klaagstem'
p5281
(F0.0
F0.5
tp5282
sS'nauw'
p5283
(F0.0
F0.25
tp5284
sS'beduusd'
p5285
(F0.0
F0.25
tp5286
sS'klunzig'
p5287
(F0.0
F0.75
tp5288
sS'bedwelmd'
p5289
(F0.0
F0.5
tp5290
sS'bleekneus'
p5291
(F0.0
F0.25
tp5292
sS'draaikont'
p5293
(F0.0
F1.0
tp5294
sS'zorgwekkend'
p5295
(F0.0
F1.0
tp5296
sS'standvastig'
p5297
(F1.0
F0.0
tp5298
sS'kletsmeieren'
p5299
(F0.0
F0.75
tp5300
sS'meningsverschil'
p5301
(F0.0
F0.25
tp5302
sS'lenigheid'
p5303
(F0.25
F0.0
tp5304
sS'schoolkennis'
p5305
(F0.25
F0.0
tp5306
sS'vuilspuiterij'
p5307
(F0.0
F0.5
tp5308
sS'beestmens'
p5309
(F0.0
F0.75
tp5310
sS'dikzak'
p5311
(F0.0
F0.75
tp5312
sS'bedroefd'
p5313
(F0.0
F1.0
tp5314
sS'waardeloos'
p5315
(F0.0
F1.0
tp5316
sS'gammel'
p5317
(F0.0
F1.0
tp5318
sS'tegenstrever'
p5319
(F0.0
F0.5
tp5320
sS'imploderen'
p5321
(F0.0
F0.5
tp5322
sS'indolent'
p5323
(F0.0
F0.5
tp5324
sS'regressie'
p5325
(F0.0
F0.25
tp5326
sS'vip'
p5327
(F0.5
F0.0
tp5328
sS'troost'
p5329
(F0.25
F0.0
tp5330
sS'hartendiefje'
p5331
(F1.0
F0.0
tp5332
sS'vredesleger'
p5333
(F0.25
F0.0
tp5334
sS'geanimeerd'
p5335
(F0.5
F0.0
tp5336
sS'volstaan'
p5337
(F0.5
F0.0
tp5338
sS'levenslang'
p5339
(F0.0
F0.5
tp5340
sS'moeitevol'
p5341
(F0.0
F0.25
tp5342
sS'ziek'
p5343
(F0.0
F0.75
tp5344
sS'flitsend'
p5345
(F0.75
F0.0
tp5346
sS'goedsmoeds'
p5347
(F0.5
F0.0
tp5348
sS'ontwapenen'
p5349
(F0.25
F0.0
tp5350
sS'bloedlink'
p5351
(F0.0
F1.0
tp5352
sS'lacuneus'
p5353
(F0.25
F0.0
tp5354
sS'neervlijen'
p5355
(F0.75
F0.0
tp5356
sS'netjes'
p5357
(F1.0
F0.0
tp5358
sS'wens'
p5359
(F0.25
F0.0
tp5360
sS'discrimineren'
p5361
(F0.0
F1.0
tp5362
sS'onvolwassen'
p5363
(F0.0
F0.75
tp5364
sS'hoffelijkheid'
p5365
(F1.0
F0.0
tp5366
sS'zorg'
p5367
(F0.5
F0.0
tp5368
sS'branden'
p5369
(F0.0
F0.25
tp5370
sS'uithouden'
p5371
(F0.0
F0.25
tp5372
sS'rationaliteit'
p5373
(F0.25
F0.0
tp5374
sS'harmonisch'
p5375
(F1.0
F0.0
tp5376
sS'opmerkelijk'
p5377
(F0.25
F0.0
tp5378
sS'obscuriteit'
p5379
(F0.0
F0.25
tp5380
sS'sensationeel'
p5381
(F0.75
F0.0
tp5382
sS'kick'
p5383
(F1.0
F0.0
tp5384
sS'ongeco\xc3\xb6rdineerd'
p5385
(F0.0
F0.75
tp5386
sS'slagvaardig'
p5387
(F0.75
F0.0
tp5388
sS'uitdaging'
p5389
(F0.25
F0.0
tp5390
sS'optater'
p5391
(F0.0
F0.5
tp5392
sS'onverschrokkenheid'
p5393
(F0.25
F0.0
tp5394
sS'hannes'
p5395
(F0.0
F0.5
tp5396
sS'ambitieus'
p5397
(F1.0
F0.0
tp5398
sS'knap'
p5399
(F1.0
F0.0
tp5400
sS'totebel'
p5401
(F0.0
F0.75
tp5402
sS'troela'
p5403
(F0.0
F1.0
tp5404
sS'gelijkliggen'
p5405
(F0.25
F0.0
tp5406
sS'volkomen'
p5407
(F0.25
F0.0
tp5408
sS'anarchisme'
p5409
(F0.0
F0.25
tp5410
sS'dood'
p5411
(F0.0
F0.5
tp5412
sS'brullen'
p5413
(F0.0
F0.75
tp5414
sS'bros'
p5415
(F0.0
F0.25
tp5416
sS'scheurklep'
p5417
(F0.0
F0.25
tp5418
sS'razernij'
p5419
(F0.0
F1.0
tp5420
sS'bordenwasser'
p5421
(F0.0
F0.25
tp5422
sS'knaap'
p5423
(F0.25
F0.0
tp5424
sS'onafhankelijkheid'
p5425
(F0.25
F0.0
tp5426
sS'verantwoording'
p5427
(F0.25
F0.0
tp5428
sS'oprukken'
p5429
(F0.5
F0.0
tp5430
sS'bazelen'
p5431
(F0.0
F1.0
tp5432
sS'corpulent'
p5433
(F0.0
F0.25
tp5434
sS'edel'
p5435
(F0.75
F0.0
tp5436
sS'echtscheiding'
p5437
(F0.0
F0.25
tp5438
sS'klagen'
p5439
(F0.0
F1.0
tp5440
sS'sarcasme'
p5441
(F0.0
F0.75
tp5442
sS'weeskind'
p5443
(F0.0
F0.25
tp5444
sS'duivelskunstenaar'
p5445
(F0.0
F1.0
tp5446
sS'grenzeloos'
p5447
(F0.25
F0.5
tp5448
sS'zinnig'
p5449
(F1.0
F0.0
tp5450
sS'omschoppen'
p5451
(F0.0
F0.5
tp5452
sS'spitsvondig'
p5453
(F0.5
F0.0
tp5454
sS'principaal'
p5455
(F0.25
F0.0
tp5456
sS'geruisloos'
p5457
(F0.5
F0.0
tp5458
sS'deknaam'
p5459
(F0.0
F0.25
tp5460
sS'zootje'
p5461
(F0.0
F1.0
tp5462
sS'grappig'
p5463
(F1.0
F0.0
tp5464
sS'buit'
p5465
(F0.5
F0.0
tp5466
sS'grootmeester'
p5467
(F1.0
F0.0
tp5468
sS'prompt'
p5469
(F0.25
F0.0
tp5470
sS'welvaart'
p5471
(F0.5
F0.0
tp5472
sS'weerlegging'
p5473
(F0.25
F0.0
tp5474
sS'eenheid'
p5475
(F0.75
F0.0
tp5476
sS'strafbal'
p5477
(F0.0
F0.25
tp5478
sS'tikgeit'
p5479
(F0.0
F0.75
tp5480
sS'droef'
p5481
(F0.0
F1.0
tp5482
sS'pro'
p5483
(F0.5
F0.0
tp5484
sS'gedeprimeerdheid'
p5485
(F0.0
F1.0
tp5486
sS'ruzie'
p5487
(F0.0
F0.75
tp5488
sS'ontsluiten'
p5489
(F0.5
F0.0
tp5490
sS'irritatie'
p5491
(F0.0
F1.0
tp5492
sS'disharmonie'
p5493
(F0.0
F0.75
tp5494
sS'bekend'
p5495
(F0.25
F0.0
tp5496
sS'autoritair'
p5497
(F0.25
F0.5
tp5498
sS'kwestieus'
p5499
(F0.0
F0.5
tp5500
sS'tolerant'
p5501
(F0.75
F0.0
tp5502
sS'razend'
p5503
(F0.0
F1.0
tp5504
sS'juichen'
p5505
(F0.5
F0.0
tp5506
sS'rechtvaardig'
p5507
(F1.0
F0.0
tp5508
sS'lomperd'
p5509
(F0.0
F0.75
tp5510
sS'bereidheid'
p5511
(F0.5
F0.0
tp5512
sS'kermen'
p5513
(F0.0
F1.0
tp5514
sS'drevelen'
p5515
(F0.0
F0.25
tp5516
sS'totstandkoming'
p5517
(F0.25
F0.0
tp5518
sS'comfort'
p5519
(F0.5
F0.0
tp5520
sS'belagen'
p5521
(F0.0
F0.5
tp5522
sS'dromen'
p5523
(F0.25
F0.0
tp5524
sS'belager'
p5525
(F0.0
F0.5
tp5526
sS'knutselen'
p5527
(F0.25
F0.0
tp5528
sS'burgo'
p5529
(F0.0
F0.25
tp5530
sS'indrukwekkend'
p5531
(F0.75
F0.0
tp5532
sS'tureluurs'
p5533
(F0.0
F1.0
tp5534
sS'oorspronkelijkheid'
p5535
(F0.5
F0.0
tp5536
sS'beroeren'
p5537
(F0.25
F0.0
tp5538
sS'botterik'
p5539
(F0.0
F1.0
tp5540
sS'knijpen'
p5541
(F0.0
F0.25
tp5542
sS'ontslag'
p5543
(F0.0
F0.25
tp5544
sS'okay'
p5545
(F0.75
F0.0
tp5546
sS'slikken'
p5547
(F0.0
F0.25
tp5548
sS'overdreven'
p5549
(F0.0
F0.75
tp5550
sS'analfabeet'
p5551
(F0.0
F0.25
tp5552
sS'vlam'
p5553
(F0.25
F0.0
tp5554
sS'onbegrijpelijk'
p5555
(F0.0
F0.75
tp5556
sS'pederast'
p5557
(F0.0
F0.25
tp5558
sS'representant'
p5559
(F0.25
F0.0
tp5560
sS'geschelpt'
p5561
(F0.25
F0.0
tp5562
sS'afkeer'
p5563
(F0.0
F1.0
tp5564
sS'fascinatie'
p5565
(F0.5
F0.0
tp5566
sS'charme'
p5567
(F1.0
F0.0
tp5568
sS'overgeven'
p5569
(F0.0
F0.25
tp5570
sS'barbaar'
p5571
(F0.0
F1.0
tp5572
sS'binnenskamers'
p5573
(F0.0
F0.5
tp5574
sS'toestand'
p5575
(F0.0
F0.25
tp5576
sS'verstoren'
p5577
(F0.0
F0.75
tp5578
sS'poppenkast'
p5579
(F0.0
F0.25
tp5580
sS'aanhoudend'
p5581
(F0.0
F0.25
tp5582
sS'sportief'
p5583
(F0.75
F0.0
tp5584
sS'frigide'
p5585
(F0.0
F0.75
tp5586
sS'schraal'
p5587
(F0.0
F0.75
tp5588
sS'maligne'
p5589
(F0.0
F0.25
tp5590
sS'eenstemmigheid'
p5591
(F0.25
F0.0
tp5592
sS'apaiseren'
p5593
(F0.25
F0.0
tp5594
sS'koffieleut'
p5595
(F0.0
F0.5
tp5596
sS'hongersnood'
p5597
(F0.0
F1.0
tp5598
sS'boosdoener'
p5599
(F0.0
F1.0
tp5600
sS'begunstigde'
p5601
(F0.75
F0.0
tp5602
sS'afgevallene'
p5603
(F0.0
F0.5
tp5604
sS'ziekte'
p5605
(F0.0
F0.75
tp5606
sS'listig'
p5607
(F0.25
F0.5
tp5608
sS'waaghals'
p5609
(F0.5
F0.0
tp5610
sS'blunder'
p5611
(F0.0
F1.0
tp5612
sS'toegewijd'
p5613
(F0.75
F0.0
tp5614
sS'ego'
p5615
(F0.0
F0.25
tp5616
sS'stoethaspelig'
p5617
(F0.0
F0.75
tp5618
sS'onbekend'
p5619
(F0.0
F0.5
tp5620
sS'pissig'
p5621
(F0.0
F1.0
tp5622
sS'waardering'
p5623
(F0.75
F0.0
tp5624
sS'hinderlaag'
p5625
(F0.0
F0.5
tp5626
sS'opsluiten'
p5627
(F0.0
F0.25
tp5628
sS'korzeligheid'
p5629
(F0.0
F0.5
tp5630
sS'hels'
p5631
(F0.0
F0.75
tp5632
sS'verwoest'
p5633
(F0.0
F1.0
tp5634
sS'eerbiediging'
p5635
(F0.5
F0.0
tp5636
sS'wraak'
p5637
(F0.0
F0.5
tp5638
sS'misselijkmakend'
p5639
(F0.0
F1.0
tp5640
sS'totstandbrenging'
p5641
(F0.75
F0.0
tp5642
sS'kansarm'
p5643
(F0.0
F0.75
tp5644
sS'consumeren'
p5645
(F0.0
F0.25
tp5646
sS'onwenselijk'
p5647
(F0.0
F1.0
tp5648
sS'bolsjewisme'
p5649
(F0.0
F0.25
tp5650
sS'afpersing'
p5651
(F0.0
F1.0
tp5652
sS'opleggen'
p5653
(F0.0
F0.5
tp5654
sS'idealisme'
p5655
(F0.25
F0.0
tp5656
sS'obstakel'
p5657
(F0.0
F0.25
tp5658
sS'reuzekerel'
p5659
(F0.75
F0.0
tp5660
sS'onvoorspelbaar'
p5661
(F0.0
F0.5
tp5662
sS'bespieden'
p5663
(F0.0
F0.25
tp5664
sS'afknijpen'
p5665
(F0.0
F0.5
tp5666
sS'arrogant'
p5667
(F0.0
F1.0
tp5668
sS'gniffelen'
p5669
(F0.0
F0.5
tp5670
sS'toneelspel'
p5671
(F0.0
F0.25
tp5672
sS'accommoderen'
p5673
(F0.25
F0.0
tp5674
sS'aanmatigend'
p5675
(F0.0
F0.5
tp5676
sS'delict'
p5677
(F0.0
F0.75
tp5678
sS'uitschieten'
p5679
(F0.0
F0.25
tp5680
sS'perfectie'
p5681
(F1.0
F0.0
tp5682
sS'arrestatie'
p5683
(F0.0
F0.5
tp5684
sS'stomverbaasd'
p5685
(F0.0
F0.5
tp5686
sS'neerslachtig'
p5687
(F0.0
F1.0
tp5688
sS'zonneklopper'
p5689
(F0.5
F0.0
tp5690
sS'aanvaard'
p5691
(F0.75
F0.0
tp5692
sS'achting'
p5693
(F0.5
F0.25
tp5694
sS'fatsoen'
p5695
(F1.0
F0.0
tp5696
sS'doorbraak'
p5697
(F0.75
F0.0
tp5698
sS'goof'
p5699
(F0.25
F0.0
tp5700
sS'goddelijk'
p5701
(F1.0
F0.0
tp5702
sS'enthousiasme'
p5703
(F1.0
F0.0
tp5704
sS'bangmakerij'
p5705
(F0.0
F0.5
tp5706
sS'verlosser'
p5707
(F0.5
F0.0
tp5708
sS'desintegratie'
p5709
(F0.0
F0.75
tp5710
sS'inhameren'
p5711
(F0.0
F0.25
tp5712
sS'teringlijder'
p5713
(F0.0
F1.0
tp5714
sS'sardonisch'
p5715
(F0.0
F0.25
tp5716
sS'gerieven'
p5717
(F0.0
F0.75
tp5718
sS'knuppel'
p5719
(F0.0
F0.25
tp5720
sS'soliditeit'
p5721
(F0.75
F0.0
tp5722
sS'raketwerper'
p5723
(F0.0
F0.25
tp5724
sS'rigide'
p5725
(F0.0
F0.25
tp5726
sS'onbeschaafd'
p5727
(F0.0
F1.0
tp5728
sS'bijgeloof'
p5729
(F0.0
F0.5
tp5730
sS'hypocrisie'
p5731
(F0.0
F1.0
tp5732
sS'eenzijdig'
p5733
(F0.0
F0.75
tp5734
sS'superbe'
p5735
(F1.0
F0.0
tp5736
sS'dronkeman'
p5737
(F0.0
F0.5
tp5738
sS'aantrekkingskracht'
p5739
(F0.25
F0.0
tp5740
sS'onsamenhangend'
p5741
(F0.0
F0.75
tp5742
sS'opperbest'
p5743
(F1.0
F0.0
tp5744
sS'verzachten'
p5745
(F0.5
F0.0
tp5746
sS'vergeven'
p5747
(F0.25
F0.0
tp5748
sS'blindheid'
p5749
(F0.0
F0.5
tp5750
sS'onvruchtbaar'
p5751
(F0.0
F0.25
tp5752
sS'gekwek'
p5753
(F0.0
F1.0
tp5754
sS'knijper'
p5755
(F0.0
F0.25
tp5756
sS'kansrijk'
p5757
(F0.5
F0.0
tp5758
sS'vreemd'
p5759
(F0.0
F1.0
tp5760
sS'genot'
p5761
(F1.0
F0.0
tp5762
sS'onzeker'
p5763
(F0.0
F0.5
tp5764
sS'wreedheid'
p5765
(F0.0
F1.0
tp5766
sS'grandeur'
p5767
(F0.75
F0.0
tp5768
sS'struikelen'
p5769
(F0.0
F0.25
tp5770
sS'erelid'
p5771
(F0.5
F0.0
tp5772
sS'achterhouden'
p5773
(F0.0
F0.75
tp5774
sS'voorspoed'
p5775
(F1.0
F0.0
tp5776
sS'slavin'
p5777
(F0.0
F0.5
tp5778
sS'samenspannen'
p5779
(F0.0
F1.0
tp5780
sS'soesa'
p5781
(F0.0
F0.25
tp5782
sS'kennis'
p5783
(F0.25
F0.0
tp5784
sS'vrouwspersoon'
p5785
(F0.0
F0.25
tp5786
sS'toeschuiven'
p5787
(F0.0
F0.25
tp5788
sS'waardigheid'
p5789
(F0.5
F0.0
tp5790
sS'hard'
p5791
(F0.0
F0.5
tp5792
sS'misverstand'
p5793
(F0.0
F0.25
tp5794
sS'sober'
p5795
(F0.0
F0.25
tp5796
sS'bende'
p5797
(F0.0
F0.75
tp5798
sS'gevoeligheid'
p5799
(F0.0
F0.25
tp5800
sS'natuurlijk'
p5801
(F0.5
F0.0
tp5802
sS'melodieus'
p5803
(F1.0
F0.0
tp5804
sS'hart'
p5805
(F0.25
F0.0
tp5806
sS'anti-radarsysteem'
p5807
(F0.0
F0.25
tp5808
sS'gebruiker'
p5809
(F0.0
F0.25
tp5810
sS'recessie'
p5811
(F0.0
F0.5
tp5812
sS'verwennen'
p5813
(F0.25
F0.0
tp5814
sS'verleiding'
p5815
(F0.25
F0.25
tp5816
sS'drugsmokkel'
p5817
(F0.0
F0.5
tp5818
sS'lofwaardig'
p5819
(F1.0
F0.0
tp5820
sS'koekenbakker'
p5821
(F0.0
F0.25
tp5822
sS'winstgevend'
p5823
(F1.0
F0.0
tp5824
sS'luizig'
p5825
(F0.0
F0.75
tp5826
sS'hebzuchtig'
p5827
(F0.0
F1.0
tp5828
sS'slaatje'
p5829
(F0.25
F0.0
tp5830
sS'leuterpraat'
p5831
(F0.0
F1.0
tp5832
sS'missen'
p5833
(F0.0
F0.25
tp5834
sS'schandalig'
p5835
(F0.0
F1.0
tp5836
sS'misser'
p5837
(F0.0
F1.0
tp5838
sS'vereren'
p5839
(F0.25
F0.0
tp5840
sS'ineffectief'
p5841
(F0.0
F1.0
tp5842
sS'schurk'
p5843
(F0.0
F1.0
tp5844
sS'hondsmoeilijk'
p5845
(F0.0
F0.75
tp5846
sS'kregelheid'
p5847
(F0.0
F0.5
tp5848
sS'ridderlijkheid'
p5849
(F1.0
F0.0
tp5850
sS'laf'
p5851
(F0.0
F1.0
tp5852
sS'warm'
p5853
(F0.75
F0.0
tp5854
sS'inert'
p5855
(F0.0
F0.25
tp5856
sS'serpent'
p5857
(F0.0
F0.5
tp5858
sS'hijgerig'
p5859
(F0.0
F0.75
tp5860
sS'buigen'
p5861
(F0.0
F0.25
tp5862
sS'sensatie'
p5863
(F0.75
F0.0
tp5864
sS'desinteresse'
p5865
(F0.0
F1.0
tp5866
sS'huishoudkundige'
p5867
(F0.0
F0.25
tp5868
sS'manco'
p5869
(F0.0
F0.5
tp5870
sS'instabiliteit'
p5871
(F0.0
F0.75
tp5872
sS'overeenstemming'
p5873
(F0.5
F0.0
tp5874
sS'defici\xc3\xabntie'
p5875
(F0.0
F0.5
tp5876
sS'oordeelkundig'
p5877
(F0.25
F0.0
tp5878
sS'peperduur'
p5879
(F0.0
F0.75
tp5880
sS'ondankbaarheid'
p5881
(F0.0
F1.0
tp5882
sS'hoopvol'
p5883
(F1.0
F0.0
tp5884
sS'aangeven'
p5885
(F0.25
F0.0
tp5886
sS'stamelen'
p5887
(F0.0
F1.0
tp5888
sS'humanist'
p5889
(F0.25
F0.0
tp5890
sS'fiat'
p5891
(F0.25
F0.0
tp5892
sS'belazeren'
p5893
(F0.0
F1.0
tp5894
sS'service'
p5895
(F0.25
F0.0
tp5896
sS'kriebelen'
p5897
(F0.0
F0.25
tp5898
sS'onevenwicht'
p5899
(F0.0
F0.5
tp5900
sS'malloot'
p5901
(F0.0
F1.0
tp5902
sS'kluns'
p5903
(F0.0
F1.0
tp5904
sS'voor'
p5905
(F0.25
F0.0
tp5906
sS'voos'
p5907
(F0.0
F0.5
tp5908
sS'wegwezen'
p5909
(F0.0
F0.25
tp5910
sS'kunstgreep'
p5911
(F0.0
F0.25
tp5912
sS'pronkziek'
p5913
(F0.0
F1.0
tp5914
sS'beteugelen'
p5915
(F0.0
F0.25
tp5916
sS'baaierd'
p5917
(F0.0
F0.5
tp5918
sS'compenseren'
p5919
(F0.0
F0.25
tp5920
sS'vuilwit'
p5921
(F0.0
F1.0
tp5922
sS'dreunen'
p5923
(F0.0
F0.25
tp5924
sS'afzien'
p5925
(F0.0
F0.75
tp5926
sS'smeerpoets'
p5927
(F0.0
F1.0
tp5928
sS'vonnis'
p5929
(F0.0
F0.25
tp5930
sS'onvoorstelbaar'
p5931
(F0.5
F0.0
tp5932
sS'bezeten'
p5933
(F0.0
F1.0
tp5934
sS'topman'
p5935
(F0.75
F0.0
tp5936
sS'koe'
p5937
(F0.0
F0.25
tp5938
sS'aanmodderen'
p5939
(F0.0
F0.5
tp5940
sS'onwrikbaar'
p5941
(F0.0
F0.25
tp5942
sS'achtenswaardig'
p5943
(F0.75
F0.0
tp5944
sS'slampamper'
p5945
(F0.0
F1.0
tp5946
sS'vreemdeling'
p5947
(F0.0
F0.25
tp5948
sS'vervreemden'
p5949
(F0.0
F0.5
tp5950
sS'heroisch'
p5951
(F1.0
F0.0
tp5952
sS'ambassadeur'
p5953
(F0.25
F0.0
tp5954
sS'stomp'
p5955
(F0.0
F0.75
tp5956
sS'overwinnaar'
p5957
(F1.0
F0.0
tp5958
sS'slimmerik'
p5959
(F0.5
F0.0
tp5960
sS'drukdoenerig'
p5961
(F0.0
F1.0
tp5962
sS'verduiveld'
p5963
(F0.0
F1.0
tp5964
sS'grondig'
p5965
(F0.75
F0.0
tp5966
sS'glitter'
p5967
(F1.0
F0.0
tp5968
sS'tegendraads'
p5969
(F0.0
F0.5
tp5970
sS'villa'
p5971
(F0.25
F0.0
tp5972
sS'onvoorzichtig'
p5973
(F0.0
F1.0
tp5974
sS'beginsel'
p5975
(F0.5
F0.0
tp5976
sS'echec'
p5977
(F0.0
F0.25
tp5978
sS'brabbelen'
p5979
(F0.0
F0.75
tp5980
sS'jeu'
p5981
(F0.5
F0.0
tp5982
sS'vervolging'
p5983
(F0.0
F0.5
tp5984
sS'eropuitgaan'
p5985
(F0.25
F0.0
tp5986
sS'langdradig'
p5987
(F0.0
F1.0
tp5988
sS'geeuw'
p5989
(F0.0
F0.25
tp5990
sS'stapelzot'
p5991
(F0.0
F0.5
tp5992
sS'duimzuiger'
p5993
(F0.0
F0.25
tp5994
sS'terechtwijzing'
p5995
(F0.0
F0.5
tp5996
sS'losbol'
p5997
(F0.0
F0.25
tp5998
sS'motivatie'
p5999
(F0.25
F0.0
tp6000
sS'huichelaar'
p6001
(F0.0
F1.0
tp6002
sS'onbeschrijfelijk'
p6003
(F0.0
F0.25
tp6004
sS'passen'
p6005
(F0.25
F0.0
tp6006
sS'ontwijkend'
p6007
(F0.0
F0.5
tp6008
sS'doneren'
p6009
(F0.5
F0.0
tp6010
sS'ladylike'
p6011
(F0.25
F0.0
tp6012
sS'kuiken'
p6013
(F0.0
F0.25
tp6014
sS'storm'
p6015
(F0.0
F0.25
tp6016
sS'soepzootje'
p6017
(F0.0
F1.0
tp6018
sS'inconsistentie'
p6019
(F0.0
F0.75
tp6020
sS'bedenker'
p6021
(F0.25
F0.0
tp6022
sS'druppels'
p6023
(F0.0
F0.25
tp6024
sS'armzaligheid'
p6025
(F0.0
F1.0
tp6026
sS'bedenken'
p6027
(F0.25
F0.0
tp6028
sS'afgrond'
p6029
(F0.0
F0.25
tp6030
sS'bolsjewiek'
p6031
(F0.0
F0.75
tp6032
sS'ondoelmatigheid'
p6033
(F0.0
F0.75
tp6034
sS'zorgelijk'
p6035
(F0.0
F1.0
tp6036
sS'lethargisch'
p6037
(F0.0
F0.5
tp6038
sS'onbeduidend'
p6039
(F0.0
F0.75
tp6040
sS'kankerzooi'
p6041
(F0.0
F1.0
tp6042
sS'hersenspoelen'
p6043
(F0.0
F1.0
tp6044
sS'bon-vivant'
p6045
(F0.25
F0.0
tp6046
sS'consternatie'
p6047
(F0.0
F0.25
tp6048
sS'aai'
p6049
(F0.25
F0.0
tp6050
sS'flets'
p6051
(F0.0
F1.0
tp6052
sS'onverantwoordelijk'
p6053
(F0.0
F0.75
tp6054
sS'grandioos'
p6055
(F1.0
F0.0
tp6056
sS'radicalisering'
p6057
(F0.0
F0.75
tp6058
sS'dank'
p6059
(F0.5
F0.0
tp6060
sS'depri'
p6061
(F0.0
F1.0
tp6062
sS'aas'
p6063
(F0.0
F0.25
tp6064
sS'snoepgoed'
p6065
(F0.25
F0.0
tp6066
sS'kopstuk'
p6067
(F0.75
F0.0
tp6068
sS'leugen'
p6069
(F0.0
F1.0
tp6070
sS'galgenaas'
p6071
(F0.0
F0.25
tp6072
sS'raspaardje'
p6073
(F0.5
F0.0
tp6074
sS'bezwaarlijk'
p6075
(F0.0
F1.0
tp6076
sS'gortdroog'
p6077
(F0.0
F1.0
tp6078
sS'slechterik'
p6079
(F0.0
F1.0
tp6080
sS'toestemming'
p6081
(F0.25
F0.0
tp6082
sS'attractie'
p6083
(F0.25
F0.0
tp6084
sS'teleurstelling'
p6085
(F0.0
F1.0
tp6086
sS'truttebol'
p6087
(F0.0
F1.0
tp6088
sS'dominantie'
p6089
(F0.0
F0.75
tp6090
sS'krentenkakker'
p6091
(F0.0
F1.0
tp6092
sS'kanker'
p6093
(F0.0
F0.75
tp6094
sS'perversie'
p6095
(F0.0
F1.0
tp6096
sS'defect'
p6097
(F0.0
F0.5
tp6098
sS'dronken'
p6099
(F0.0
F0.75
tp6100
sS'nervositeit'
p6101
(F0.0
F0.75
tp6102
sS'verfrissend'
p6103
(F1.0
F0.0
tp6104
sS'derderangs'
p6105
(F0.0
F1.0
tp6106
sS'blond'
p6107
(F0.0
F0.5
tp6108
sS'vergezocht'
p6109
(F0.0
F1.0
tp6110
sS'pedo'
p6111
(F0.0
F0.5
tp6112
sS'opmieteren'
p6113
(F0.0
F1.0
tp6114
sS'slapjes'
p6115
(F0.0
F0.75
tp6116
sS'considerabel'
p6117
(F0.25
F0.0
tp6118
sS'verwijt'
p6119
(F0.0
F0.5
tp6120
sS'gewauwel'
p6121
(F0.0
F1.0
tp6122
sS'onverschillig'
p6123
(F0.0
F0.75
tp6124
sS'oord'
p6125
(F0.0
F0.25
tp6126
sS'stilliggen'
p6127
(F0.0
F0.25
tp6128
sS'tragisch'
p6129
(F0.0
F1.0
tp6130
sS'folteraar'
p6131
(F0.0
F0.5
tp6132
sS'zeemacht'
p6133
(F0.25
F0.0
tp6134
sS'wrakkig'
p6135
(F0.0
F1.0
tp6136
sS'toegefelijk'
p6137
(F0.25
F0.0
tp6138
sS'gevangene'
p6139
(F0.0
F0.25
tp6140
sS'slagveld'
p6141
(F0.0
F0.5
tp6142
sS'kankerlijer'
p6143
(F0.0
F1.0
tp6144
sS'judas'
p6145
(F0.0
F0.5
tp6146
sS'naargeestig'
p6147
(F0.0
F1.0
tp6148
sS'abnormaal'
p6149
(F0.25
F0.25
tp6150
sS'welvarend'
p6151
(F0.75
F0.0
tp6152
sS'onoorbaar'
p6153
(F0.0
F0.5
tp6154
sS'fibrositis'
p6155
(F0.0
F0.25
tp6156
sS'goed'
p6157
(F0.25
F0.0
tp6158
sS'gedesori\xc3\xabnteerd'
p6159
(F0.0
F0.5
tp6160
sS'suprematie'
p6161
(F0.5
F0.0
tp6162
sS'rationeel'
p6163
(F0.75
F0.0
tp6164
sS'euvel'
p6165
(F0.0
F0.25
tp6166
sS'fraude'
p6167
(F0.0
F1.0
tp6168
sS'virus'
p6169
(F0.0
F0.25
tp6170
sS'concreet'
p6171
(F0.75
F0.0
tp6172
sS'verloren'
p6173
(F0.0
F0.5
tp6174
sS'bewonderaar'
p6175
(F0.5
F0.0
tp6176
sS'vernietigen'
p6177
(F0.0
F0.75
tp6178
sS'droomland'
p6179
(F0.25
F0.0
tp6180
sS'uitgezakt'
p6181
(F0.0
F1.0
tp6182
sS'betrappen'
p6183
(F0.0
F0.5
tp6184
sS'inhalig'
p6185
(F0.0
F0.75
tp6186
sS'louche'
p6187
(F0.0
F0.5
tp6188
sS'populariteit'
p6189
(F0.5
F0.0
tp6190
sS'raak'
p6191
(F0.75
F0.0
tp6192
sS'reischeque'
p6193
(F0.25
F0.0
tp6194
sS'impopulair'
p6195
(F0.0
F1.0
tp6196
sS'goodwill'
p6197
(F1.0
F0.0
tp6198
sS'absurditeit'
p6199
(F0.0
F0.75
tp6200
sS'goddeloze'
p6201
(F0.0
F1.0
tp6202
sS'begrijpen'
p6203
(F0.75
F0.0
tp6204
sS'kortzichtig'
p6205
(F0.0
F0.75
tp6206
sS'pluimen'
p6207
(F0.25
F0.0
tp6208
sS'verontrustend'
p6209
(F0.0
F1.0
tp6210
sS'leeghoofd'
p6211
(F0.0
F1.0
tp6212
sS'wagenziek'
p6213
(F0.0
F0.5
tp6214
sS'knotsgek'
p6215
(F0.0
F0.75
tp6216
sS'uilskuiken'
p6217
(F0.0
F1.0
tp6218
sS'misselijk'
p6219
(F0.0
F0.5
tp6220
sS'beledigd'
p6221
(F0.0
F0.5
tp6222
sS'kankeraar'
p6223
(F0.0
F1.0
tp6224
sS'verwondering'
p6225
(F0.75
F0.0
tp6226
sS'verdelgen'
p6227
(F0.0
F0.25
tp6228
sS'indiscretie'
p6229
(F0.0
F0.5
tp6230
sS'onbillijkheid'
p6231
(F0.0
F1.0
tp6232
sS'pluim'
p6233
(F0.5
F0.0
tp6234
sS'stumper'
p6235
(F0.0
F1.0
tp6236
sS'ongerustheid'
p6237
(F0.0
F0.25
tp6238
sS'have-not'
p6239
(F0.0
F0.5
tp6240
sS'fond'
p6241
(F0.25
F0.0
tp6242
sS'onhoudbaar'
p6243
(F0.0
F1.0
tp6244
sS'puntgaaf'
p6245
(F1.0
F0.0
tp6246
sS'gesnedene'
p6247
(F0.0
F0.25
tp6248
sS'vervelend'
p6249
(F0.0
F1.0
tp6250
sS'kierewiet'
p6251
(F0.0
F1.0
tp6252
sS'zwaar'
p6253
(F0.0
F0.5
tp6254
sS'schlemielig'
p6255
(F0.0
F1.0
tp6256
sS'afschuwelijk'
p6257
(F0.0
F1.0
tp6258
sS'beuzelarij'
p6259
(F0.0
F1.0
tp6260
sS'matiging'
p6261
(F0.25
F0.0
tp6262
sS'hard-drug'
p6263
(F0.0
F0.25
tp6264
sS'bloedarm'
p6265
(F0.0
F0.5
tp6266
sS'delinquent'
p6267
(F0.0
F0.5
tp6268
sS'afdruipen'
p6269
(F0.0
F0.25
tp6270
sS'protser'
p6271
(F0.0
F0.75
tp6272
sS'halfezel'
p6273
(F0.0
F0.5
tp6274
sS'weggeven'
p6275
(F0.25
F0.0
tp6276
sS'paranoia'
p6277
(F0.0
F0.75
tp6278
sS'vermijden'
p6279
(F0.0
F0.25
tp6280
sS'wreveligheid'
p6281
(F0.0
F0.75
tp6282
sS'lekkage'
p6283
(F0.0
F0.25
tp6284
sS'geducht'
p6285
(F0.25
F0.25
tp6286
sS'iel'
p6287
(F0.0
F0.75
tp6288
sS'bestendigheid'
p6289
(F0.25
F0.0
tp6290
sS'verkooppraatje'
p6291
(F0.0
F0.5
tp6292
sS'duidelijkheid'
p6293
(F0.25
F0.0
tp6294
sS'bevoegd'
p6295
(F0.75
F0.0
tp6296
sS'bemiddeld'
p6297
(F0.25
F0.0
tp6298
sS'aanvechtbaar'
p6299
(F0.0
F0.25
tp6300
sS'wegkruipen'
p6301
(F0.0
F0.25
tp6302
sS'prutser'
p6303
(F0.0
F1.0
tp6304
sS'hip'
p6305
(F1.0
F0.0
tp6306
sS'pochhans'
p6307
(F0.0
F1.0
tp6308
sS'meid'
p6309
(F0.0
F0.25
tp6310
sS'levenservaring'
p6311
(F0.5
F0.0
tp6312
sS'appreciatie'
p6313
(F0.75
F0.0
tp6314
sS'ongevoeglijk'
p6315
(F0.0
F0.5
tp6316
sS'positief'
p6317
(F1.0
F0.0
tp6318
sS'extravagantie'
p6319
(F0.25
F0.25
tp6320
sS'misrekenen'
p6321
(F0.0
F0.75
tp6322
sS'weigering'
p6323
(F0.0
F0.5
tp6324
sS'bezoedeling'
p6325
(F0.0
F0.25
tp6326
sS'waakzaamheid'
p6327
(F0.5
F0.0
tp6328
sS'dwarsdrijverig'
p6329
(F0.0
F0.75
tp6330
sS'berucht'
p6331
(F0.25
F0.25
tp6332
sS'sluwheid'
p6333
(F0.5
F0.25
tp6334
sS'kostbaar'
p6335
(F0.25
F0.25
tp6336
sS'optrekje'
p6337
(F0.25
F0.0
tp6338
sS'slimmigheid'
p6339
(F0.75
F0.0
tp6340
sS'vluchtig'
p6341
(F0.0
F0.25
tp6342
sS'zelfmoord'
p6343
(F0.0
F0.5
tp6344
sS'onberedeneerd'
p6345
(F0.0
F1.0
tp6346
sS'zot'
p6347
(F0.0
F0.75
tp6348
sS'lachen'
p6349
(F0.5
F0.0
tp6350
sS'geblokkeerd'
p6351
(F0.0
F0.25
tp6352
sS'zwijmelen'
p6353
(F0.25
F0.5
tp6354
sS'offreren'
p6355
(F0.5
F0.0
tp6356
sS'beregoed'
p6357
(F1.0
F0.0
tp6358
sS'voortvarend'
p6359
(F1.0
F0.0
tp6360
sS'vloeken'
p6361
(F0.0
F0.75
tp6362
sS'botsen'
p6363
(F0.0
F0.75
tp6364
sS'concilieren'
p6365
(F0.25
F0.0
tp6366
sS'geruchtmakend'
p6367
(F0.0
F0.5
tp6368
sS'baffer'
p6369
(F0.0
F0.25
tp6370
sS'gekheid'
p6371
(F0.0
F0.5
tp6372
sS'begenadigd'
p6373
(F0.5
F0.0
tp6374
sS'verdedigen'
p6375
(F0.25
F0.0
tp6376
sS'minder-valide'
p6377
(F0.0
F0.25
tp6378
sS'gebiedsuitbreiding'
p6379
(F0.0
F0.25
tp6380
sS'armoedigheid'
p6381
(F0.0
F1.0
tp6382
sS'beslommeringen'
p6383
(F0.0
F1.0
tp6384
sS'vervuiler'
p6385
(F0.0
F1.0
tp6386
sS'kapot'
p6387
(F0.0
F1.0
tp6388
sS'kletsen'
p6389
(F0.0
F0.25
tp6390
sS'moeten'
p6391
(F0.0
F0.25
tp6392
sS'pleite'
p6393
(F0.0
F0.25
tp6394
sS'potent'
p6395
(F0.5
F0.0
tp6396
sS'zeveren'
p6397
(F0.0
F1.0
tp6398
sS'besodemieterd'
p6399
(F0.0
F1.0
tp6400
sS'matig'
p6401
(F0.0
F1.0
tp6402
sS'vernietiging'
p6403
(F0.0
F1.0
tp6404
sS'herstellen'
p6405
(F0.5
F0.0
tp6406
sS'reinigen'
p6407
(F0.25
F0.0
tp6408
sS'arm'
p6409
(F0.0
F0.75
tp6410
sS'onervarenheid'
p6411
(F0.0
F0.5
tp6412
sS'klerelijer'
p6413
(F0.0
F1.0
tp6414
sS'fortuin'
p6415
(F0.5
F0.0
tp6416
sS'productief'
p6417
(F1.0
F0.0
tp6418
sS'onpartijdigheid'
p6419
(F0.75
F0.0
tp6420
sS'uitgehongerd'
p6421
(F0.0
F0.75
tp6422
sS'knal'
p6423
(F0.0
F0.25
tp6424
sS'werkloze'
p6425
(F0.0
F0.5
tp6426
sS'miserabel'
p6427
(F0.0
F0.75
tp6428
sS'ellendig'
p6429
(F0.0
F1.0
tp6430
sS'engel'
p6431
(F1.0
F0.0
tp6432
sS'plezant'
p6433
(F1.0
F0.0
tp6434
sS'vrijbuiter'
p6435
(F0.0
F0.25
tp6436
sS'beklemd'
p6437
(F0.0
F0.5
tp6438
sS'geruststellen'
p6439
(F0.25
F0.0
tp6440
sS'hiaat'
p6441
(F0.0
F0.5
tp6442
sS'jaloezie'
p6443
(F0.0
F0.75
tp6444
sS'bezitter'
p6445
(F0.25
F0.0
tp6446
sS'beleven'
p6447
(F0.25
F0.0
tp6448
sS'wanhoop'
p6449
(F0.0
F1.0
tp6450
sS'barbaars'
p6451
(F0.0
F1.0
tp6452
sS'ongelijkheid'
p6453
(F0.0
F0.5
tp6454
sS'tirade'
p6455
(F0.0
F0.5
tp6456
sS'zoeven'
p6457
(F0.25
F0.0
tp6458
sS'stilstand'
p6459
(F0.0
F0.25
tp6460
sS'intelligentie'
p6461
(F0.75
F0.0
tp6462
sS'opgeblazen'
p6463
(F0.0
F0.5
tp6464
sS'schattebout'
p6465
(F1.0
F0.0
tp6466
sS'verwurging'
p6467
(F0.0
F0.25
tp6468
sS'drijven'
p6469
(F0.25
F0.0
tp6470
sS'incident'
p6471
(F0.0
F0.5
tp6472
sS'racisme'
p6473
(F0.0
F0.75
tp6474
sS'zemelaar'
p6475
(F0.0
F1.0
tp6476
sS'fikken'
p6477
(F0.0
F0.75
tp6478
sS'waanzin'
p6479
(F0.0
F0.75
tp6480
sS'competent'
p6481
(F0.5
F0.0
tp6482
sS'inertie'
p6483
(F0.0
F0.25
tp6484
sS'wanordelijkheid'
p6485
(F0.0
F1.0
tp6486
sS'vrijgevigheid'
p6487
(F1.0
F0.0
tp6488
sS'welbespraaktheid'
p6489
(F0.5
F0.0
tp6490
sS'snotneus'
p6491
(F0.0
F0.25
tp6492
sS'idioot'
p6493
(F0.0
F1.0
tp6494
sS'vulvitis'
p6495
(F0.0
F0.25
tp6496
sS'verslechtering'
p6497
(F0.0
F1.0
tp6498
sS'last'
p6499
(F0.0
F0.75
tp6500
sS'ravijn'
p6501
(F0.0
F0.25
tp6502
sS'voorbeeld'
p6503
(F0.25
F0.0
tp6504
sS'contradictie'
p6505
(F0.0
F0.75
tp6506
sS'amnestie'
p6507
(F0.25
F0.0
tp6508
sS'mazzelkont'
p6509
(F1.0
F0.0
tp6510
sS'schijtluis'
p6511
(F0.0
F1.0
tp6512
sS'plurk'
p6513
(F0.0
F1.0
tp6514
sS'rijp'
p6515
(F0.25
F0.0
tp6516
sS'doortastend'
p6517
(F1.0
F0.0
tp6518
sS'misdraging'
p6519
(F0.0
F0.5
tp6520
sS'monumentaal'
p6521
(F1.0
F0.0
tp6522
sS'ondergaan'
p6523
(F0.0
F0.25
tp6524
sS'verwonden'
p6525
(F0.0
F0.5
tp6526
sS'decoratie'
p6527
(F0.25
F0.0
tp6528
sS'ontwijken'
p6529
(F0.0
F0.25
tp6530
sS'aanwezig'
p6531
(F0.25
F0.0
tp6532
sS'vooruit'
p6533
(F0.5
F0.0
tp6534
sS'onfatsoenlijk'
p6535
(F0.0
F1.0
tp6536
sS'drager'
p6537
(F0.0
F0.25
tp6538
sS'secessie'
p6539
(F0.0
F0.25
tp6540
sS'knurft'
p6541
(F0.0
F1.0
tp6542
sS'fierheid'
p6543
(F0.75
F0.0
tp6544
sS'steenkoud'
p6545
(F0.0
F1.0
tp6546
sS'lijnrecht'
p6547
(F0.0
F0.25
tp6548
sS'opsnijder'
p6549
(F0.0
F0.5
tp6550
sS'inzinking'
p6551
(F0.0
F1.0
tp6552
sS'verhelpen'
p6553
(F1.0
F0.0
tp6554
sS'flexibel'
p6555
(F0.5
F0.0
tp6556
sS'overmatig'
p6557
(F0.0
F0.75
tp6558
sS'onjuist'
p6559
(F0.0
F1.0
tp6560
sS'loeigoed'
p6561
(F1.0
F0.0
tp6562
sS'gerucht'
p6563
(F0.0
F0.5
tp6564
sS'evacueren'
p6565
(F0.0
F0.25
tp6566
sS'verwijdering'
p6567
(F0.0
F0.25
tp6568
sS'geoefend'
p6569
(F0.5
F0.0
tp6570
sS'geloofwaardig'
p6571
(F0.75
F0.0
tp6572
sS'partijdigheid'
p6573
(F0.0
F1.0
tp6574
sS'magertjes'
p6575
(F0.0
F1.0
tp6576
sS'bloemig'
p6577
(F0.5
F0.25
tp6578
sS'belang'
p6579
(F0.25
F0.0
tp6580
sS'belemmeren'
p6581
(F0.0
F0.75
tp6582
sS'slaapkop'
p6583
(F0.0
F1.0
tp6584
sS'overvloedig'
p6585
(F0.5
F0.0
tp6586
sS'extravagant'
p6587
(F0.25
F0.25
tp6588
sS'ziekmakend'
p6589
(F0.0
F1.0
tp6590
sS'onverbeterlijk'
p6591
(F0.5
F0.5
tp6592
sS'riemslag'
p6593
(F0.0
F0.5
tp6594
sS'uitbarsting'
p6595
(F0.0
F0.25
tp6596
sS'dame'
p6597
(F0.25
F0.0
tp6598
sS'zenuwachtig'
p6599
(F0.0
F0.5
tp6600
sS'kloterig'
p6601
(F0.0
F1.0
tp6602
sS'venerabel'
p6603
(F0.5
F0.0
tp6604
sS'daling'
p6605
(F0.0
F0.5
tp6606
sS'onbenulligheid'
p6607
(F0.0
F1.0
tp6608
sS'verliezen'
p6609
(F0.0
F0.5
tp6610
sS'opgelucht'
p6611
(F0.5
F0.0
tp6612
sS'gat'
p6613
(F0.0
F0.25
tp6614
sS'kloterij'
p6615
(F0.0
F1.0
tp6616
sS'gewoontjes'
p6617
(F0.0
F1.0
tp6618
sS'droefheid'
p6619
(F0.0
F1.0
tp6620
sS'heerlijk'
p6621
(F1.0
F0.0
tp6622
sS'verwijtend'
p6623
(F0.0
F1.0
tp6624
sS'propositie'
p6625
(F0.25
F0.0
tp6626
sS'doordrammer'
p6627
(F0.0
F0.75
tp6628
sS'decadent'
p6629
(F0.0
F0.25
tp6630
sS'feestneus'
p6631
(F0.25
F0.0
tp6632
sS'wurgen'
p6633
(F0.0
F0.5
tp6634
sS'versterking'
p6635
(F0.25
F0.0
tp6636
sS'uilebal'
p6637
(F0.0
F0.75
tp6638
sS'idealiseren'
p6639
(F0.0
F0.5
tp6640
sS'agressiviteit'
p6641
(F0.0
F0.75
tp6642
sS'besluitvaardigheid'
p6643
(F0.25
F0.0
tp6644
sS'betoveren'
p6645
(F0.25
F0.0
tp6646
sS'loon'
p6647
(F0.25
F0.0
tp6648
sS'vermogen'
p6649
(F0.25
F0.0
tp6650
sS'aanfluiting'
p6651
(F0.0
F0.75
tp6652
sS'geweldig'
p6653
(F1.0
F0.0
tp6654
sS'modderig'
p6655
(F0.0
F0.5
tp6656
sS'achterblijfster'
p6657
(F0.0
F0.25
tp6658
sS'pokkenvent'
p6659
(F0.0
F1.0
tp6660
sS'aanleg'
p6661
(F0.75
F0.0
tp6662
sS'keurig'
p6663
(F0.75
F0.0
tp6664
sS'behoeftigheid'
p6665
(F0.0
F0.25
tp6666
sS'daadkrachtig'
p6667
(F0.75
F0.0
tp6668
sS'loshoofd'
p6669
(F0.0
F0.75
tp6670
sS'verlevendigen'
p6671
(F1.0
F0.0
tp6672
sS'onaantrekkelijk'
p6673
(F0.0
F1.0
tp6674
sS'klerezooi'
p6675
(F0.0
F1.0
tp6676
sS'profiteur'
p6677
(F0.0
F0.5
tp6678
sS'gewenst'
p6679
(F1.0
F0.0
tp6680
sS'sentimenteel'
p6681
(F0.0
F0.5
tp6682
sS'struikelsteen'
p6683
(F0.0
F0.75
tp6684
sS'bijten'
p6685
(F0.0
F0.25
tp6686
sS'nietsnut'
p6687
(F0.0
F1.0
tp6688
sS'onderwerping'
p6689
(F0.0
F0.5
tp6690
sS'provocatie'
p6691
(F0.0
F0.25
tp6692
sS'dombo'
p6693
(F0.0
F1.0
tp6694
sS'minderwaardig'
p6695
(F0.0
F1.0
tp6696
sS'opladen'
p6697
(F0.25
F0.0
tp6698
sS'goudmijn'
p6699
(F0.5
F0.0
tp6700
sS'brutaal'
p6701
(F0.0
F0.75
tp6702
sS'wild'
p6703
(F0.0
F0.25
tp6704
sS'verzuren'
p6705
(F0.0
F0.25
tp6706
sS'kibbelpartij'
p6707
(F0.0
F0.5
tp6708
sS'verzwakken'
p6709
(F0.0
F0.5
tp6710
sS'ris'
p6711
(F0.0
F0.25
tp6712
sS'vlammend'
p6713
(F1.0
F0.0
tp6714
sS'klaarheid'
p6715
(F0.25
F0.0
tp6716
sS'beuzelachtig'
p6717
(F0.0
F0.5
tp6718
sS'zweetspoor'
p6719
(F0.0
F0.5
tp6720
sS'onpartijdig'
p6721
(F1.0
F0.0
tp6722
sS'banaal'
p6723
(F0.0
F1.0
tp6724
sS'hoempapamuziek'
p6725
(F0.0
F0.25
tp6726
sS'menselijkheid'
p6727
(F0.75
F0.0
tp6728
sS'ingesteld'
p6729
(F0.25
F0.0
tp6730
sS'lanceren'
p6731
(F0.25
F0.0
tp6732
sS'kwal'
p6733
(F0.0
F0.5
tp6734
sS'eenvoudig'
p6735
(F0.25
F0.25
tp6736
sS'beangst'
p6737
(F0.0
F0.75
tp6738
sS'geitebreier'
p6739
(F0.0
F0.25
tp6740
sS'bewering'
p6741
(F0.0
F0.25
tp6742
sS'ordelijkheid'
p6743
(F0.5
F0.0
tp6744
sS'geestdriftig'
p6745
(F0.75
F0.0
tp6746
sS'toegankelijk'
p6747
(F1.0
F0.0
tp6748
sS'beschimpen'
p6749
(F0.0
F0.75
tp6750
sS'verantwoordelijkheid'
p6751
(F0.25
F0.0
tp6752
sS'zwijnenpan'
p6753
(F0.0
F1.0
tp6754
sS'furie'
p6755
(F0.0
F1.0
tp6756
sS'waakzaam'
p6757
(F0.25
F0.0
tp6758
sS'behaard'
p6759
(F0.0
F0.5
tp6760
sS'lelijkheid'
p6761
(F0.0
F1.0
tp6762
sS'kaalplukken'
p6763
(F0.0
F0.75
tp6764
sS'renoveren'
p6765
(F0.25
F0.0
tp6766
sS'gelijk'
p6767
(F0.25
F0.0
tp6768
sS'krakemikkig'
p6769
(F0.0
F1.0
tp6770
sS'blieven'
p6771
(F0.0
F0.25
tp6772
sS'puik'
p6773
(F1.0
F0.0
tp6774
sS'conflict'
p6775
(F0.0
F0.75
tp6776
sS'wilskrachtig'
p6777
(F1.0
F0.0
tp6778
sS'theocraat'
p6779
(F0.0
F0.25
tp6780
sS'beestenbende'
p6781
(F0.0
F0.75
tp6782
sS'highrofile'
p6783
(F0.25
F0.0
tp6784
sS'bonus'
p6785
(F0.5
F0.0
tp6786
sS'onfatsoenlijkheid'
p6787
(F0.0
F1.0
tp6788
sS'belegering'
p6789
(F0.0
F0.5
tp6790
sS'slavink'
p6791
(F0.0
F0.5
tp6792
sS'vervloeking'
p6793
(F0.0
F0.75
tp6794
sS'verliezer'
p6795
(F0.0
F1.0
tp6796
sS'vrek'
p6797
(F0.0
F1.0
tp6798
sS'verdord'
p6799
(F0.0
F0.75
tp6800
sS'onbenul'
p6801
(F0.0
F0.75
tp6802
sS'horde'
p6803
(F0.0
F0.5
tp6804
sS'onderscheidend'
p6805
(F0.5
F0.0
tp6806
sS'omliggen'
p6807
(F0.0
F0.25
tp6808
sS'ezelsveulen'
p6809
(F0.0
F0.5
tp6810
sS'liefhebberen'
p6811
(F0.5
F0.0
tp6812
sS'zuur'
p6813
(F0.0
F0.5
tp6814
sS'koorts'
p6815
(F0.0
F0.25
tp6816
sS'bourgeois'
p6817
(F0.0
F0.25
tp6818
sS'regelaar'
p6819
(F0.25
F0.0
tp6820
sS'grootspreker'
p6821
(F0.0
F1.0
tp6822
sS'rommel'
p6823
(F0.0
F1.0
tp6824
sS'onheil'
p6825
(F0.0
F1.0
tp6826
sS'solide'
p6827
(F1.0
F0.0
tp6828
sS'lekkers'
p6829
(F0.75
F0.0
tp6830
sS'sterk'
p6831
(F0.75
F0.0
tp6832
sS'onderdrukken'
p6833
(F0.25
F0.25
tp6834
sS'stellingname'
p6835
(F0.25
F0.0
tp6836
sS'dwangsom'
p6837
(F0.0
F0.5
tp6838
sS'floreren'
p6839
(F0.5
F0.0
tp6840
sS'bekwaam'
p6841
(F1.0
F0.0
tp6842
sS'dwarsligger'
p6843
(F0.0
F0.75
tp6844
sS'hautain'
p6845
(F0.0
F0.5
tp6846
sS'ongeregeld'
p6847
(F0.0
F1.0
tp6848
sS'doods'
p6849
(F0.0
F1.0
tp6850
sS'komiek'
p6851
(F0.5
F0.0
tp6852
sS'verward'
p6853
(F0.0
F1.0
tp6854
sS'ontevredenheid'
p6855
(F0.0
F1.0
tp6856
sS'vervalsen'
p6857
(F0.0
F0.75
tp6858
sS'grootspreken'
p6859
(F0.0
F1.0
tp6860
sS'onbevoegde'
p6861
(F0.0
F0.25
tp6862
sS'vuistvechter'
p6863
(F0.0
F0.75
tp6864
sS'gruwelijk'
p6865
(F0.0
F1.0
tp6866
sS'onthouden'
p6867
(F0.25
F0.0
tp6868
sS'naast'
p6869
(F0.0
F0.25
tp6870
sS'hobbel'
p6871
(F0.0
F0.25
tp6872
sS'verheerlijking'
p6873
(F0.0
F0.5
tp6874
sS'oneetbaar'
p6875
(F0.0
F0.5
tp6876
sS'scalperen'
p6877
(F0.0
F0.5
tp6878
sS'morsen'
p6879
(F0.0
F0.5
tp6880
sS'uitbrengen'
p6881
(F0.25
F0.0
tp6882
sS'schadestatistiek'
p6883
(F0.0
F0.25
tp6884
sS'geduldig'
p6885
(F0.75
F0.0
tp6886
sS'zielepiet'
p6887
(F0.0
F0.75
tp6888
sS'verwoesting'
p6889
(F0.0
F1.0
tp6890
sS'impotent'
p6891
(F0.0
F0.25
tp6892
sS'vermaken'
p6893
(F0.5
F0.0
tp6894
sS'boef'
p6895
(F0.0
F1.0
tp6896
sS'stompje'
p6897
(F0.25
F0.25
tp6898
sS'ster'
p6899
(F0.5
F0.0
tp6900
sS'tormenteren'
p6901
(F0.0
F0.5
tp6902
sS'onverschilligheid'
p6903
(F0.0
F1.0
tp6904
sS'goedlachs'
p6905
(F0.5
F0.0
tp6906
sS'aberratie'
p6907
(F0.0
F0.25
tp6908
sS'haten'
p6909
(F0.0
F1.0
tp6910
sS'vuilpeuk'
p6911
(F0.0
F1.0
tp6912
sS'losgeslagen'
p6913
(F0.0
F1.0
tp6914
sS'overtuigen'
p6915
(F0.25
F0.0
tp6916
sS'ontaarden'
p6917
(F0.0
F0.75
tp6918
sS'misbruik'
p6919
(F0.0
F1.0
tp6920
sS'vergenoegdheid'
p6921
(F0.0
F0.25
tp6922
sS'kruistocht'
p6923
(F0.0
F0.5
tp6924
sS'wetenschapsmens'
p6925
(F0.25
F0.0
tp6926
sS'klungel'
p6927
(F0.0
F1.0
tp6928
sS'zwijnekeet'
p6929
(F0.0
F0.75
tp6930
sS'straatroof'
p6931
(F0.0
F0.25
tp6932
sS'kwaadaardig'
p6933
(F0.0
F1.0
tp6934
sS'sjorren'
p6935
(F0.0
F0.5
tp6936
sS'vervorming'
p6937
(F0.0
F0.5
tp6938
sS'smeerpijp'
p6939
(F0.0
F1.0
tp6940
sS'kirren'
p6941
(F0.0
F0.75
tp6942
sS'doodhongeren'
p6943
(F0.0
F0.75
tp6944
sS'snol'
p6945
(F0.0
F1.0
tp6946
sS'ineffici\xc3\xabnt'
p6947
(F0.0
F1.0
tp6948
sS'zelfvoorzienend'
p6949
(F0.25
F0.0
tp6950
sS'ombrengen'
p6951
(F0.0
F0.75
tp6952
sS'duivels'
p6953
(F0.0
F1.0
tp6954
sS'verwenst'
p6955
(F0.0
F0.5
tp6956
sS'voeden'
p6957
(F0.25
F0.0
tp6958
sS'heilige'
p6959
(F1.0
F0.0
tp6960
sS'kenner'
p6961
(F0.5
F0.0
tp6962
sS'strubbeling'
p6963
(F0.0
F0.75
tp6964
sS'fatsoenlijk'
p6965
(F1.0
F0.0
tp6966
sS'doorzwoegen'
p6967
(F0.25
F0.0
tp6968
sS'klaarkomen'
p6969
(F0.25
F0.0
tp6970
sS'bedriegerij'
p6971
(F0.0
F1.0
tp6972
sS'advies'
p6973
(F0.25
F0.0
tp6974
sS'oneerlijkheid'
p6975
(F0.0
F1.0
tp6976
sS'plundering'
p6977
(F0.0
F1.0
tp6978
sS'mis\xc3\xa8re'
p6979
(F0.0
F0.75
tp6980
sS'schriel'
p6981
(F0.0
F0.25
tp6982
sS'killersmentaliteit'
p6983
(F0.0
F0.25
tp6984
sS'rechten'
p6985
(F0.25
F0.0
tp6986
sS'eer'
p6987
(F0.5
F0.0
tp6988
sS'rechter'
p6989
(F0.25
F0.0
tp6990
sS'janken'
p6991
(F0.0
F0.75
tp6992
sS'ingebakken'
p6993
(F0.25
F0.25
tp6994
sS'ondergang'
p6995
(F0.0
F1.0
tp6996
sS'foltering'
p6997
(F0.0
F1.0
tp6998
sS'pietlut'
p6999
(F0.0
F1.0
tp7000
sS'onteigenen'
p7001
(F0.0
F0.25
tp7002
sS'verslechteren'
p7003
(F0.0
F1.0
tp7004
sS'flut'
p7005
(F0.0
F1.0
tp7006
sS'vreugdeloos'
p7007
(F0.0
F1.0
tp7008
sS'wensen'
p7009
(F0.25
F0.0
tp7010
sS'boerenkaffer'
p7011
(F0.0
F1.0
tp7012
sS'rede'
p7013
(F0.25
F0.0
tp7014
sS'herroepen'
p7015
(F0.0
F0.25
tp7016
sS'waaghalzerig'
p7017
(F0.0
F0.75
tp7018
sS'verplichting'
p7019
(F0.0
F0.25
tp7020
sS'onplezierig'
p7021
(F0.0
F1.0
tp7022
sS'blaaskaak'
p7023
(F0.0
F1.0
tp7024
sS'loser'
p7025
(F0.0
F1.0
tp7026
sS'duivelin'
p7027
(F0.0
F0.5
tp7028
sS'vulgariteit'
p7029
(F0.0
F1.0
tp7030
sS'haalbaar'
p7031
(F1.0
F0.0
tp7032
sS'importantie'
p7033
(F0.25
F0.0
tp7034
sS'fanfare'
p7035
(F0.25
F0.0
tp7036
sS'veroveren'
p7037
(F0.25
F0.0
tp7038
sS'woede'
p7039
(F0.0
F0.75
tp7040
sS'luxe'
p7041
(F0.5
F0.0
tp7042
sS'wow'
p7043
(F1.0
F0.0
tp7044
sS'manisch'
p7045
(F0.0
F0.25
tp7046
sS'weirdo'
p7047
(F0.0
F0.75
tp7048
sS'krankzinnig'
p7049
(F0.0
F0.75
tp7050
sS'mystiekerig'
p7051
(F0.0
F0.25
tp7052
sS'zeikvent'
p7053
(F0.0
F1.0
tp7054
sS'ontoelaatbaar'
p7055
(F0.0
F0.5
tp7056
sS'aanzienlijk'
p7057
(F0.5
F0.0
tp7058
sS'triestheid'
p7059
(F0.0
F0.75
tp7060
sS'zwoegen'
p7061
(F0.25
F0.5
tp7062
sS'tewerkgestelde'
p7063
(F0.0
F0.25
tp7064
sS'uitputtend'
p7065
(F0.0
F0.25
tp7066
sS'lolbroekerij'
p7067
(F0.25
F0.0
tp7068
sS'tweederangs'
p7069
(F0.0
F0.75
tp7070
sS'welbespraakt'
p7071
(F1.0
F0.0
tp7072
sS'smoelentrekker'
p7073
(F0.0
F0.5
tp7074
sS'energie'
p7075
(F0.5
F0.0
tp7076
sS'leuk'
p7077
(F1.0
F0.0
tp7078
sS'geslepenheid'
p7079
(F0.0
F0.5
tp7080
sS'overschatting'
p7081
(F0.0
F0.75
tp7082
sS'aankloppen'
p7083
(F0.25
F0.0
tp7084
sS'bruisend'
p7085
(F0.75
F0.0
tp7086
sS'idiotisme'
p7087
(F0.0
F1.0
tp7088
sS'onrechtvaardig'
p7089
(F0.0
F1.0
tp7090
sS'zinsbegoocheling'
p7091
(F0.0
F0.75
tp7092
sS'stijfkoppig'
p7093
(F0.0
F1.0
tp7094
sS'verdienste'
p7095
(F0.5
F0.0
tp7096
sS'doorsnijden'
p7097
(F0.0
F0.25
tp7098
sS'teruggetrokkenheid'
p7099
(F0.0
F0.25
tp7100
sS'hellend'
p7101
(F0.0
F0.25
tp7102
sS'achterbaks'
p7103
(F0.0
F1.0
tp7104
sS'onachtzaam'
p7105
(F0.0
F0.75
tp7106
sS'moeizaam'
p7107
(F0.0
F1.0
tp7108
sS'wederhelft'
p7109
(F0.25
F0.0
tp7110
sS'oen'
p7111
(F0.0
F1.0
tp7112
sS'uitgekiend'
p7113
(F0.25
F0.0
tp7114
sS'pierewiet'
p7115
(F0.0
F0.75
tp7116
sS'paasdrukte'
p7117
(F0.0
F0.25
tp7118
sS'prosperiteit'
p7119
(F0.5
F0.0
tp7120
sS'haasvreter'
p7121
(F0.0
F1.0
tp7122
sS'knevelarij'
p7123
(F0.0
F1.0
tp7124
sS'ordeloosheid'
p7125
(F0.0
F1.0
tp7126
sS'pappen'
p7127
(F0.0
F0.5
tp7128
sS'underdog'
p7129
(F0.0
F1.0
tp7130
sS'dulden'
p7131
(F0.0
F0.25
tp7132
sS'besje'
p7133
(F0.0
F0.25
tp7134
sS'alleen'
p7135
(F0.0
F0.25
tp7136
sS'onvoldoende'
p7137
(F0.0
F0.5
tp7138
sS'verontwaardiging'
p7139
(F0.0
F1.0
tp7140
sS'drama'
p7141
(F0.0
F0.75
tp7142
sS'eerwaarde'
p7143
(F0.5
F0.0
tp7144
sS'raisonnabel'
p7145
(F0.5
F0.0
tp7146
sS'zeldzaam'
p7147
(F0.25
F0.0
tp7148
sS'pionieren'
p7149
(F0.25
F0.0
tp7150
sS'huichelarij'
p7151
(F0.0
F1.0
tp7152
sS'stuntelaar'
p7153
(F0.0
F1.0
tp7154
sS'vindingrijkheid'
p7155
(F1.0
F0.0
tp7156
sS'veroorloven'
p7157
(F0.0
F0.25
tp7158
sS'addict'
p7159
(F0.0
F0.25
tp7160
sS'Redder'
p7161
(F0.5
F0.0
tp7162
sS'moederlief'
p7163
(F0.75
F0.0
tp7164
sS'waarachtigheid'
p7165
(F1.0
F0.0
tp7166
sS'achterstand'
p7167
(F0.0
F0.5
tp7168
sS'vitaliteit'
p7169
(F1.0
F0.0
tp7170
sS'transvestiet'
p7171
(F0.0
F0.25
tp7172
sS'infiltreren'
p7173
(F0.0
F0.25
tp7174
sS'vreugd'
p7175
(F1.0
F0.0
tp7176
sS'gelul'
p7177
(F0.0
F1.0
tp7178
sS'reuzenkerel'
p7179
(F0.5
F0.0
tp7180
sS'geluk'
p7181
(F1.0
F0.0
tp7182
sS'leepheid'
p7183
(F0.0
F0.25
tp7184
sS'bouwvallig'
p7185
(F0.0
F0.5
tp7186
sS'onvolwaardigheid'
p7187
(F0.0
F0.75
tp7188
sS'achterlijke'
p7189
(F0.0
F1.0
tp7190
sS'frustrerend'
p7191
(F0.0
F1.0
tp7192
sS'vaag'
p7193
(F0.0
F0.75
tp7194
sS'betrouwbaar'
p7195
(F1.0
F0.0
tp7196
sS'funest'
p7197
(F0.0
F0.75
tp7198
sS'onschuld'
p7199
(F1.0
F0.0
tp7200
sS'slechter'
p7201
(F0.0
F1.0
tp7202
sS'glos'
p7203
(F0.25
F0.0
tp7204
sS'schaterlachen'
p7205
(F0.75
F0.0
tp7206
sS'maffialid'
p7207
(F0.0
F0.5
tp7208
sS'gedijen'
p7209
(F0.25
F0.0
tp7210
sS'verdoemenis'
p7211
(F0.0
F1.0
tp7212
sS'onverzorgd'
p7213
(F0.0
F1.0
tp7214
sS'welbehagen'
p7215
(F0.5
F0.0
tp7216
sS'pracht'
p7217
(F1.0
F0.0
tp7218
sS'plausibel'
p7219
(F1.0
F0.0
tp7220
sS'lolmaker'
p7221
(F1.0
F0.0
tp7222
sS'type'
p7223
(F0.0
F0.25
tp7224
sS'misdeelde'
p7225
(F0.0
F0.75
tp7226
sS'accuraat'
p7227
(F1.0
F0.0
tp7228
sS'overtuigend'
p7229
(F0.75
F0.0
tp7230
sS'bemoedigend'
p7231
(F1.0
F0.0
tp7232
sS'aangeslagen'
p7233
(F0.0
F0.5
tp7234
sS'opwinding'
p7235
(F0.25
F0.0
tp7236
sS'indonderen'
p7237
(F0.0
F0.5
tp7238
sS'grootdoener'
p7239
(F0.0
F0.5
tp7240
sS'relaxen'
p7241
(F0.75
F0.0
tp7242
sS'rechtop'
p7243
(F0.25
F0.0
tp7244
sS'getto'
p7245
(F0.0
F0.5
tp7246
sS'giebelen'
p7247
(F0.25
F0.0
tp7248
sS'hopen'
p7249
(F0.25
F0.0
tp7250
sS'bevordering'
p7251
(F0.25
F0.0
tp7252
sS'onvoltooid'
p7253
(F0.0
F0.5
tp7254
sS'inept'
p7255
(F0.0
F0.25
tp7256
sS'overtuiging'
p7257
(F0.75
F0.0
tp7258
sS'zuster'
p7259
(F0.25
F0.0
tp7260
sS'fractuur'
p7261
(F0.0
F0.25
tp7262
sS'geschillencommissie'
p7263
(F0.0
F0.25
tp7264
sS'wanhopig'
p7265
(F0.0
F1.0
tp7266
sS'walgelijk'
p7267
(F0.0
F1.0
tp7268
sS'voorspelbaar'
p7269
(F0.0
F0.75
tp7270
sS'pret'
p7271
(F0.75
F0.0
tp7272
sS'vrouwmens'
p7273
(F0.0
F0.5
tp7274
sS'weinig'
p7275
(F0.0
F0.75
tp7276
sS'wanen'
p7277
(F0.0
F0.75
tp7278
sS'meelijwekkend'
p7279
(F0.0
F1.0
tp7280
sS'verzorgd'
p7281
(F1.0
F0.0
tp7282
sS'onzuiver'
p7283
(F0.0
F1.0
tp7284
sS'faam'
p7285
(F0.75
F0.0
tp7286
sS'vuilpoes'
p7287
(F0.0
F1.0
tp7288
sS'waterhoofd'
p7289
(F0.0
F0.75
tp7290
sS'vernedering'
p7291
(F0.0
F1.0
tp7292
sS'smiespelen'
p7293
(F0.0
F0.5
tp7294
sS'onvrijwillig'
p7295
(F0.0
F0.5
tp7296
sS'fnuikend'
p7297
(F0.0
F0.5
tp7298
sS'onontkoombaar'
p7299
(F0.0
F0.25
tp7300
sS'sufkop'
p7301
(F0.0
F1.0
tp7302
sS'vergenoegen'
p7303
(F0.25
F0.0
tp7304
sS'spetter'
p7305
(F0.5
F0.0
tp7306
sS'ontevreden'
p7307
(F0.0
F1.0
tp7308
sS'harteloos'
p7309
(F0.0
F1.0
tp7310
sS'krijgsmacht'
p7311
(F0.25
F0.0
tp7312
sS'wetteloos'
p7313
(F0.0
F0.75
tp7314
sS'kwellen'
p7315
(F0.0
F1.0
tp7316
sS'lanterfanter'
p7317
(F0.0
F0.75
tp7318
sS'voorziening'
p7319
(F0.25
F0.0
tp7320
sS'kakelen'
p7321
(F0.0
F0.75
tp7322
sS'pluimpje'
p7323
(F0.5
F0.0
tp7324
sS'begeestering'
p7325
(F0.5
F0.0
tp7326
sS'levendig'
p7327
(F1.0
F0.0
tp7328
sS'giechelen'
p7329
(F0.75
F0.0
tp7330
sS'rotzooien'
p7331
(F0.0
F0.5
tp7332
sS'misgrijpen'
p7333
(F0.0
F0.25
tp7334
sS'onbetrouwbaar'
p7335
(F0.0
F0.75
tp7336
sS'grimas'
p7337
(F0.0
F0.5
tp7338
sS'hilarisch'
p7339
(F1.0
F0.0
tp7340
sS'oetlul'
p7341
(F0.0
F1.0
tp7342
sS'verantwoord'
p7343
(F1.0
F0.0
tp7344
sS'ongebroken'
p7345
(F0.5
F0.0
tp7346
sS'disputabel'
p7347
(F0.0
F1.0
tp7348
sS'buitengewoon'
p7349
(F0.5
F0.0
tp7350
sS'eersteklas'
p7351
(F0.5
F0.0
tp7352
sS'verkeersdrukte'
p7353
(F0.0
F0.25
tp7354
sS'bosgodin'
p7355
(F0.25
F0.0
tp7356
sS'wijfie'
p7357
(F0.0
F0.25
tp7358
sS'betrekking'
p7359
(F0.25
F0.0
tp7360
sS'vreten'
p7361
(F0.0
F0.75
tp7362
sS'stopzetting'
p7363
(F0.0
F0.25
tp7364
sS'poetslap'
p7365
(F0.0
F0.25
tp7366
sS'bluffer'
p7367
(F0.0
F0.25
tp7368
sS'vakkundig'
p7369
(F1.0
F0.0
tp7370
sS'klemmen'
p7371
(F0.0
F0.25
tp7372
sS'ijverig'
p7373
(F1.0
F0.0
tp7374
sS'sceptisch'
p7375
(F0.0
F0.75
tp7376
sS'beminnelijk'
p7377
(F1.0
F0.0
tp7378
sS'arrogantie'
p7379
(F0.0
F1.0
tp7380
sS'gijzelaar'
p7381
(F0.0
F0.5
tp7382
sS'onaanvaardbaar'
p7383
(F0.0
F1.0
tp7384
sS'verneukeratief'
p7385
(F0.0
F1.0
tp7386
sS'hoempamuziek'
p7387
(F0.0
F0.25
tp7388
sS'murw'
p7389
(F0.0
F0.25
tp7390
sS'contribueren'
p7391
(F0.25
F0.0
tp7392
sS'ok\xc3\xa9'
p7393
(F1.0
F0.0
tp7394
sS'vrijlaten'
p7395
(F0.5
F0.0
tp7396
sS'kneusje'
p7397
(F0.0
F1.0
tp7398
sS'imbeciel'
p7399
(F0.0
F1.0
tp7400
sS'vrijheid'
p7401
(F0.5
F0.0
tp7402
sS'formidabel'
p7403
(F1.0
F0.0
tp7404
sS'duisternis'
p7405
(F0.0
F0.25
tp7406
sS'verbijsterd'
p7407
(F0.0
F1.0
tp7408
sS'pijnpunt'
p7409
(F0.0
F0.5
tp7410
sS'gruwel'
p7411
(F0.0
F1.0
tp7412
sS'afgrijselijk'
p7413
(F0.0
F1.0
tp7414
sS'lady-like'
p7415
(F0.5
F0.0
tp7416
sS'averechts'
p7417
(F0.0
F0.5
tp7418
sS'sferisch'
p7419
(F0.25
F0.0
tp7420
sS'wankelen'
p7421
(F0.0
F0.75
tp7422
sS'insect'
p7423
(F0.0
F0.25
tp7424
sS'kwestie'
p7425
(F0.0
F0.25
tp7426
sS'ontzet'
p7427
(F0.0
F0.75
tp7428
sS'drommel'
p7429
(F0.0
F0.5
tp7430
sS'doorgang'
p7431
(F0.25
F0.0
tp7432
sS'lobbesachtig'
p7433
(F0.25
F0.0
tp7434
sS'kortademigheid'
p7435
(F0.0
F0.25
tp7436
sS'roep'
p7437
(F0.25
F0.0
tp7438
sS'flikken'
p7439
(F0.0
F0.75
tp7440
sS'vroomheid'
p7441
(F0.25
F0.0
tp7442
sS'levenskunstenaar'
p7443
(F0.75
F0.0
tp7444
sS'denderend'
p7445
(F0.5
F0.25
tp7446
sS'moraliteit'
p7447
(F0.25
F0.0
tp7448
sS'heldhaftig'
p7449
(F0.75
F0.0
tp7450
sS'ontmoedigend'
p7451
(F0.0
F1.0
tp7452
sS'agressie'
p7453
(F0.0
F1.0
tp7454
sS'fingeren'
p7455
(F0.0
F0.25
tp7456
sS'amuseren'
p7457
(F0.75
F0.0
tp7458
sS'vaalbont'
p7459
(F0.0
F0.5
tp7460
sS'wegjagen'
p7461
(F0.0
F0.5
tp7462
sS'rommelen'
p7463
(F0.0
F0.5
tp7464
sS'sufferd'
p7465
(F0.0
F1.0
tp7466
sS'clownerie'
p7467
(F0.0
F0.25
tp7468
sS'godheid'
p7469
(F0.5
F0.0
tp7470
sS'vellen'
p7471
(F0.0
F0.25
tp7472
sS'dronkaard'
p7473
(F0.0
F1.0
tp7474
sS'nasi'
p7475
(F0.0
F0.5
tp7476
sS'berouw'
p7477
(F0.25
F0.0
tp7478
sS'babbelen'
p7479
(F0.5
F0.0
tp7480
sS'prettig'
p7481
(F1.0
F0.0
tp7482
sS'zoet'
p7483
(F0.5
F0.0
tp7484
sS'betrouwbaarheid'
p7485
(F1.0
F0.0
tp7486
sS'pervers'
p7487
(F0.0
F1.0
tp7488
sS'inactief'
p7489
(F0.0
F0.5
tp7490
sS'pruts'
p7491
(F0.0
F0.75
tp7492
sS'labiel'
p7493
(F0.0
F1.0
tp7494
sS'zwijnenstal'
p7495
(F0.0
F0.75
tp7496
sS'concessie'
p7497
(F0.0
F0.25
tp7498
sS'lovenswaardig'
p7499
(F1.0
F0.0
tp7500
sS'nederlaag'
p7501
(F0.0
F1.0
tp7502
sS'hoereerder'
p7503
(F0.0
F1.0
tp7504
sS'frivool'
p7505
(F0.75
F0.0
tp7506
sS'saai'
p7507
(F0.0
F1.0
tp7508
sS'Hydra'
p7509
(F0.0
F0.25
tp7510
sS'po\xc3\xabtisch'
p7511
(F0.75
F0.0
tp7512
sS'twijfel'
p7513
(F0.25
F0.25
tp7514
sS'gezond'
p7515
(F1.0
F0.0
tp7516
sS'halfzacht'
p7517
(F0.0
F0.75
tp7518
sS'oersaai'
p7519
(F0.0
F1.0
tp7520
sS'coherentie'
p7521
(F0.5
F0.0
tp7522
sS'chaotisch'
p7523
(F0.0
F1.0
tp7524
sS'uitgeslapen'
p7525
(F0.25
F0.0
tp7526
sS'rebels'
p7527
(F0.0
F0.75
tp7528
sS'compact'
p7529
(F0.25
F0.0
tp7530
sS'ontbreken'
p7531
(F0.0
F0.25
tp7532
sS'achterdocht'
p7533
(F0.0
F1.0
tp7534
sS'klacht'
p7535
(F0.0
F0.5
tp7536
sS'reddingsploeg'
p7537
(F0.25
F0.0
tp7538
sS'onbeteugeld'
p7539
(F0.0
F0.25
tp7540
sS'beroerte'
p7541
(F0.0
F0.5
tp7542
sS'intimiteit'
p7543
(F0.25
F0.0
tp7544
sS'anomalie'
p7545
(F0.0
F0.25
tp7546
sS'notabel'
p7547
(F0.5
F0.0
tp7548
sS'gemoedelijkheid'
p7549
(F1.0
F0.0
tp7550
sS'innovatie'
p7551
(F0.5
F0.0
tp7552
sS'suspicie'
p7553
(F0.0
F0.5
tp7554
sS'hellevorst'
p7555
(F0.0
F0.5
tp7556
sS'aspiraties'
p7557
(F0.75
F0.0
tp7558
sS'meesterlijk'
p7559
(F1.0
F0.0
tp7560
sS'wereldklasse'
p7561
(F0.5
F0.0
tp7562
sS'tremor'
p7563
(F0.0
F0.25
tp7564
sS'ongeschikt'
p7565
(F0.0
F1.0
tp7566
sS'verlegenheid'
p7567
(F0.0
F0.25
tp7568
sS'gelukkig'
p7569
(F1.0
F0.0
tp7570
sS'vermaledijd'
p7571
(F0.0
F0.25
tp7572
sS'bangheid'
p7573
(F0.0
F0.5
tp7574
sS'materialist'
p7575
(F0.0
F0.5
tp7576
sS'opdondertje'
p7577
(F0.25
F0.25
tp7578
sS'kroonlid'
p7579
(F0.25
F0.0
tp7580
sS'dessert'
p7581
(F0.25
F0.0
tp7582
sS'ondermaats'
p7583
(F0.0
F1.0
tp7584
sS'krenken'
p7585
(F0.0
F1.0
tp7586
sS'klungelen'
p7587
(F0.0
F0.5
tp7588
sS'welkom'
p7589
(F0.25
F0.0
tp7590
sS'toebrengen'
p7591
(F0.0
F0.25
tp7592
sS'beslechten'
p7593
(F0.0
F0.25
tp7594
sS'passie'
p7595
(F0.75
F0.0
tp7596
sS'witheet'
p7597
(F0.0
F0.75
tp7598
sS'sierlijk'
p7599
(F1.0
F0.0
tp7600
sS'schoonheid'
p7601
(F1.0
F0.0
tp7602
sS'spook'
p7603
(F0.0
F0.75
tp7604
sS'gebeuzel'
p7605
(F0.0
F0.75
tp7606
sS'sentimentaliteit'
p7607
(F0.0
F0.5
tp7608
sS'polarisatie'
p7609
(F0.0
F0.5
tp7610
sS'verleiden'
p7611
(F0.25
F0.0
tp7612
sS'donders'
p7613
(F0.0
F0.5
tp7614
sS'incoherent'
p7615
(F0.0
F0.75
tp7616
sS'ziekenbezoek'
p7617
(F0.25
F0.0
tp7618
sS'doorstoten'
p7619
(F0.25
F0.0
tp7620
sS'onderkruipsel'
p7621
(F0.0
F1.0
tp7622
sS'armoede'
p7623
(F0.0
F1.0
tp7624
sS'shock'
p7625
(F0.0
F0.75
tp7626
sS'originaliteit'
p7627
(F0.5
F0.0
tp7628
sS'laster'
p7629
(F0.0
F1.0
tp7630
sS'knakker'
p7631
(F0.25
F0.5
tp7632
sS'tegenstander'
p7633
(F0.0
F0.25
tp7634
sS'bezwendelen'
p7635
(F0.0
F0.5
tp7636
sS'vlug'
p7637
(F0.5
F0.0
tp7638
sS'oliebol'
p7639
(F0.0
F0.25
tp7640
sS'omkomen'
p7641
(F0.0
F0.5
tp7642
sS'moeheid'
p7643
(F0.0
F0.75
tp7644
sS'plaatje'
p7645
(F0.25
F0.0
tp7646
sS'kemphaan'
p7647
(F0.25
F0.25
tp7648
sS'ophoesten'
p7649
(F0.0
F0.25
tp7650
sS'avanceren'
p7651
(F0.25
F0.0
tp7652
sS'alledaags'
p7653
(F0.0
F0.5
tp7654
sS'co\xc3\xb6peratie'
p7655
(F0.75
F0.0
tp7656
sS'wankel'
p7657
(F0.0
F0.5
tp7658
sS'lijden'
p7659
(F0.0
F0.5
tp7660
sS'onstandvastig'
p7661
(F0.0
F1.0
tp7662
sS'vooruitgang'
p7663
(F1.0
F0.0
tp7664
sS'leuterkoek'
p7665
(F0.0
F1.0
tp7666
sS'lijder'
p7667
(F0.25
F0.5
tp7668
sS'loeder'
p7669
(F0.0
F1.0
tp7670
sS'opstand'
p7671
(F0.0
F0.25
tp7672
sS'pechvogel'
p7673
(F0.0
F1.0
tp7674
sS'sympathiek'
p7675
(F1.0
F0.0
tp7676
sS'lichtvoetig'
p7677
(F0.75
F0.0
tp7678
sS'prof'
p7679
(F1.0
F0.0
tp7680
sS'cryptisch'
p7681
(F0.0
F0.25
tp7682
sS'pieremachochel'
p7683
(F0.0
F0.25
tp7684
sS'afzetting'
p7685
(F0.0
F0.25
tp7686
sS'produktief'
p7687
(F1.0
F0.0
tp7688
sS'moralisme'
p7689
(F0.0
F0.25
tp7690
sS'hersenspinsel'
p7691
(F0.0
F0.5
tp7692
sS'uitblinker'
p7693
(F1.0
F0.0
tp7694
sS'leefbaar'
p7695
(F0.75
F0.0
tp7696
sS'onesthetisch'
p7697
(F0.0
F0.75
tp7698
sS'vergemakkelijken'
p7699
(F0.75
F0.0
tp7700
sS'verbazing'
p7701
(F0.0
F0.25
tp7702
sS'bedroevend'
p7703
(F0.0
F1.0
tp7704
sS'royalist'
p7705
(F0.5
F0.0
tp7706
sS'imitator'
p7707
(F0.0
F0.5
tp7708
sS'dynamisch'
p7709
(F0.5
F0.0
tp7710
sS'stagneren'
p7711
(F0.0
F0.5
tp7712
sS'kapsoneslijer'
p7713
(F0.0
F1.0
tp7714
sS'deskundig'
p7715
(F0.75
F0.0
tp7716
sS'tegenstrijdig'
p7717
(F0.0
F1.0
tp7718
sS'klungelig'
p7719
(F0.0
F1.0
tp7720
sS'strijdbaar'
p7721
(F0.75
F0.0
tp7722
sS'wroeging'
p7723
(F0.0
F0.75
tp7724
sS'lef'
p7725
(F0.5
F0.0
tp7726
sS'showbink'
p7727
(F0.75
F0.0
tp7728
sS'rechtlijnig'
p7729
(F0.25
F0.25
tp7730
sS'sint'
p7731
(F0.25
F0.0
tp7732
sS'lek'
p7733
(F0.0
F0.25
tp7734
sS'prutsen'
p7735
(F0.0
F1.0
tp7736
sS'huilen'
p7737
(F0.0
F0.5
tp7738
sS'kapotvallen'
p7739
(F0.0
F0.5
tp7740
sS'kortademig'
p7741
(F0.0
F0.25
tp7742
sS'afdanken'
p7743
(F0.0
F0.25
tp7744
sS'apotheose'
p7745
(F0.25
F0.0
tp7746
sS'imitatie'
p7747
(F0.0
F0.25
tp7748
sS'lijvig'
p7749
(F0.0
F0.25
tp7750
sS'aanpezen'
p7751
(F0.25
F0.0
tp7752
sS'uittreden'
p7753
(F0.0
F0.25
tp7754
sS'zwaarmoedig'
p7755
(F0.0
F1.0
tp7756
sS'talent'
p7757
(F1.0
F0.0
tp7758
sS'onherstelbaar'
p7759
(F0.0
F1.0
tp7760
sS'ostensibel'
p7761
(F0.0
F0.25
tp7762
sS'gezellig'
p7763
(F1.0
F0.0
tp7764
sS'minkukel'
p7765
(F0.0
F1.0
tp7766
sS'bloedhond'
p7767
(F0.0
F0.25
tp7768
sS'huwelijk'
p7769
(F0.25
F0.0
tp7770
sS'bindvliesontsteking'
p7771
(F0.0
F0.25
tp7772
sS'apprecieren'
p7773
(F0.5
F0.0
tp7774
sS'onberispelijk'
p7775
(F1.0
F0.0
tp7776
sS'bolle'
p7777
(F0.0
F0.75
tp7778
sS'loyaliteit'
p7779
(F1.0
F0.0
tp7780
sS'vechtersbaas'
p7781
(F0.5
F0.5
tp7782
sS'wig'
p7783
(F0.0
F0.25
tp7784
sS'beperken'
p7785
(F0.0
F0.25
tp7786
sS'hoeksteen'
p7787
(F0.25
F0.0
tp7788
sS'deelhebber'
p7789
(F0.25
F0.0
tp7790
sS'raddraaier'
p7791
(F0.0
F0.5
tp7792
sS'avondpartij'
p7793
(F0.25
F0.0
tp7794
sS'lulkoek'
p7795
(F0.0
F1.0
tp7796
sS'bedremmeld'
p7797
(F0.0
F0.75
tp7798
sS'onrecht'
p7799
(F0.0
F0.5
tp7800
sS'verdriet'
p7801
(F0.0
F0.75
tp7802
sS'overvloeiing'
p7803
(F0.0
F0.25
tp7804
sS'platheid'
p7805
(F0.0
F0.5
tp7806
sS'betrokken'
p7807
(F0.5
F0.0
tp7808
sS'betreurenswaard'
p7809
(F0.0
F1.0
tp7810
sS'wil'
p7811
(F0.25
F0.0
tp7812
sS'muggenzifter'
p7813
(F0.0
F1.0
tp7814
sS'ongeloof'
p7815
(F0.0
F0.25
tp7816
sS'akkoord'
p7817
(F0.25
F0.0
tp7818
sS'sfeerloos'
p7819
(F0.0
F1.0
tp7820
sS'doorstaan'
p7821
(F0.75
F0.0
tp7822
sS'sjeu'
p7823
(F0.25
F0.25
tp7824
sS'verafschuwen'
p7825
(F0.0
F1.0
tp7826
sS'ordeloos'
p7827
(F0.0
F0.75
tp7828
sS'renommee'
p7829
(F0.25
F0.0
tp7830
sS'schellen'
p7831
(F0.0
F0.25
tp7832
sS'kuis'
p7833
(F0.25
F0.0
tp7834
sS'fel'
p7835
(F0.0
F0.25
tp7836
sS'teleurstellend'
p7837
(F0.0
F1.0
tp7838
sS'liefje'
p7839
(F1.0
F0.0
tp7840
sS'lijdensweg'
p7841
(F0.0
F1.0
tp7842
sS'onverwoestbaar'
p7843
(F1.0
F0.0
tp7844
sS'bergopwaarts'
p7845
(F0.75
F0.0
tp7846
sS'kunde'
p7847
(F0.5
F0.0
tp7848
sS'triest'
p7849
(F0.0
F1.0
tp7850
sS'cynisch'
p7851
(F0.0
F0.5
tp7852
sS'schijn'
p7853
(F0.25
F0.25
tp7854
sS'nodig'
p7855
(F0.25
F0.0
tp7856
sS'irriteren'
p7857
(F0.0
F1.0
tp7858
sS'beleefdheid'
p7859
(F0.5
F0.0
tp7860
sS'overdrijven'
p7861
(F0.0
F0.75
tp7862
sS'sanctie'
p7863
(F0.0
F0.5
tp7864
sS'geestdodend'
p7865
(F0.0
F1.0
tp7866
sS'problematisch'
p7867
(F0.0
F1.0
tp7868
sS'puinhoop'
p7869
(F0.0
F1.0
tp7870
sS'glazig'
p7871
(F0.0
F0.5
tp7872
sS'opflikkeren'
p7873
(F0.25
F0.5
tp7874
sS'overwaaien'
p7875
(F0.0
F0.25
tp7876
sS'gewijd'
p7877
(F0.75
F0.0
tp7878
sS'heil'
p7879
(F0.5
F0.0
tp7880
sS'worstelaar'
p7881
(F0.0
F0.25
tp7882
sS'femmeatale'
p7883
(F0.0
F0.25
tp7884
sS'gewichtigheid'
p7885
(F0.25
F0.0
tp7886
sS'begeesterd'
p7887
(F0.5
F0.25
tp7888
sS'foutloos'
p7889
(F1.0
F0.0
tp7890
sS'pati\xc3\xabnt'
p7891
(F0.0
F0.25
tp7892
sS'heilloos'
p7893
(F0.0
F1.0
tp7894
sS'miskleun'
p7895
(F0.0
F1.0
tp7896
sS'volwassen'
p7897
(F0.5
F0.0
tp7898
sS'wanbegrip'
p7899
(F0.0
F0.5
tp7900
sS'kwaaddoener'
p7901
(F0.0
F1.0
tp7902
sS'ram'
p7903
(F0.0
F0.25
tp7904
sS'onterecht'
p7905
(F0.0
F0.75
tp7906
sS'onwelriekend'
p7907
(F0.0
F0.5
tp7908
sS'barri\xc3\xa8re'
p7909
(F0.0
F0.25
tp7910
sS'ridicuul'
p7911
(F0.0
F0.75
tp7912
sS'klunzerig'
p7913
(F0.0
F1.0
tp7914
sS'zelfstandige'
p7915
(F0.25
F0.0
tp7916
sS'dronkelap'
p7917
(F0.0
F1.0
tp7918
sS'mafkees'
p7919
(F0.0
F0.5
tp7920
sS'afzonderen'
p7921
(F0.0
F0.5
tp7922
sS'aanvaarden'
p7923
(F0.25
F0.0
tp7924
sS'strijdvaardigheid'
p7925
(F0.5
F0.0
tp7926
sS'obsceniteit'
p7927
(F0.0
F0.5
tp7928
sS'eikel'
p7929
(F0.0
F0.75
tp7930
sS'overmeesteren'
p7931
(F0.5
F0.0
tp7932
sS'gereed'
p7933
(F0.75
F0.0
tp7934
sS'aanbevelen'
p7935
(F0.5
F0.0
tp7936
sS'vrouwvriendelijk'
p7937
(F0.0
F0.5
tp7938
sS'slim'
p7939
(F1.0
F0.0
tp7940
sS'inferioriteit'
p7941
(F0.0
F0.5
tp7942
sS'geduvel'
p7943
(F0.0
F1.0
tp7944
sS'onnut'
p7945
(F0.0
F1.0
tp7946
sS'honneur'
p7947
(F0.5
F0.0
tp7948
sS'gabber'
p7949
(F0.25
F0.25
tp7950
sS'kameraadschap'
p7951
(F0.5
F0.0
tp7952
sS'tiran'
p7953
(F0.0
F1.0
tp7954
sS'uilenbal'
p7955
(F0.0
F0.75
tp7956
sS'valserik'
p7957
(F0.0
F1.0
tp7958
sS'bederf'
p7959
(F0.0
F1.0
tp7960
sS'vuilik'
p7961
(F0.0
F1.0
tp7962
sS'miereneuker'
p7963
(F0.0
F1.0
tp7964
sS'slijm'
p7965
(F0.0
F0.5
tp7966
sS'sip'
p7967
(F0.0
F1.0
tp7968
sS'instabiel'
p7969
(F0.0
F1.0
tp7970
sS'zegenen'
p7971
(F0.25
F0.0
tp7972
sS'zwerver'
p7973
(F0.0
F0.5
tp7974
sS'lame'
p7975
(F0.0
F0.5
tp7976
sS'druiloor'
p7977
(F0.0
F1.0
tp7978
sS'papperig'
p7979
(F0.0
F0.5
tp7980
sS'zielepoot'
p7981
(F0.0
F1.0
tp7982
sS'verslaafde'
p7983
(F0.0
F0.5
tp7984
sS'pech'
p7985
(F0.0
F1.0
tp7986
sS'onderdoen'
p7987
(F0.0
F0.25
tp7988
sS'consideratie'
p7989
(F0.25
F0.0
tp7990
sS'weerbaarheid'
p7991
(F0.25
F0.0
tp7992
sS'drastisch'
p7993
(F0.0
F0.25
tp7994
sS'wanboffer'
p7995
(F0.0
F1.0
tp7996
sS'slaaf'
p7997
(F0.0
F0.75
tp7998
sS'misleiden'
p7999
(F0.0
F0.75
tp8000
sS'hebberig'
p8001
(F0.0
F1.0
tp8002
sS'tegenspoed'
p8003
(F0.0
F0.5
tp8004
sS'ambi\xc3\xabren'
p8005
(F0.25
F0.0
tp8006
sS'vitriool'
p8007
(F0.0
F0.25
tp8008
sS'juistheid'
p8009
(F0.75
F0.0
tp8010
sS'klap'
p8011
(F0.0
F0.5
tp8012
sS'hemel'
p8013
(F0.25
F0.0
tp8014
sS'kenteren'
p8015
(F0.25
F0.0
tp8016
sS'lieftallig'
p8017
(F0.75
F0.0
tp8018
sS'tact'
p8019
(F0.75
F0.0
tp8020
sS'profijtelijk'
p8021
(F1.0
F0.0
tp8022
sS'feestvieren'
p8023
(F0.75
F0.0
tp8024
sS'beschamend'
p8025
(F0.0
F1.0
tp8026
sS'middenweg'
p8027
(F0.25
F0.0
tp8028
sS'berispen'
p8029
(F0.0
F0.5
tp8030
sS'labbekak'
p8031
(F0.0
F1.0
tp8032
sS'versiering'
p8033
(F0.25
F0.0
tp8034
sS'hartroerend'
p8035
(F1.0
F0.0
tp8036
sS'revalueren'
p8037
(F0.25
F0.0
tp8038
sS'hypocriet'
p8039
(F0.0
F1.0
tp8040
sS'stank'
p8041
(F0.0
F1.0
tp8042
sS'mensenschuw'
p8043
(F0.0
F1.0
tp8044
sS'berouwvol'
p8045
(F0.0
F1.0
tp8046
sS'onrechtmatig'
p8047
(F0.0
F1.0
tp8048
sS'wrang'
p8049
(F0.0
F1.0
tp8050
sS'bink'
p8051
(F0.75
F0.0
tp8052
sS'stom'
p8053
(F0.0
F1.0
tp8054
sS'ge\xc3\xabmmer'
p8055
(F0.0
F0.5
tp8056
sS'inbreuk'
p8057
(F0.0
F0.25
tp8058
sS'ego\xc3\xafsme'
p8059
(F0.0
F1.0
tp8060
sS'element'
p8061
(F0.25
F0.0
tp8062
sS'plagen'
p8063
(F0.0
F0.75
tp8064
sS'gevaarlijk'
p8065
(F0.0
F1.0
tp8066
sS'voorzichtigheid'
p8067
(F0.25
F0.0
tp8068
sS'schrik'
p8069
(F0.0
F0.25
tp8070
sS'levensstandaard'
p8071
(F0.25
F0.0
tp8072
sS'uitmuntend'
p8073
(F1.0
F0.0
tp8074
sS'twijfelachtig'
p8075
(F0.0
F0.75
tp8076
sS'wanordelijk'
p8077
(F0.0
F1.0
tp8078
sS'gelijkheid'
p8079
(F0.5
F0.0
tp8080
sS'doordrijver'
p8081
(F0.0
F0.75
tp8082
sS'overlast'
p8083
(F0.0
F0.5
tp8084
sS'volhardingsvermogen'
p8085
(F0.75
F0.0
tp8086
sS'intimideren'
p8087
(F0.0
F1.0
tp8088
sS'behoeftig'
p8089
(F0.0
F0.25
tp8090
sS'ongewenst'
p8091
(F0.0
F1.0
tp8092
sS'stampei'
p8093
(F0.0
F1.0
tp8094
sS'gevierd'
p8095
(F1.0
F0.0
tp8096
sS'stroomstoot'
p8097
(F0.0
F0.25
tp8098
sS'snuiter'
p8099
(F0.0
F0.75
tp8100
sS'verantwoordelijk'
p8101
(F0.75
F0.0
tp8102
sS'verhindering'
p8103
(F0.0
F0.75
tp8104
sS'onterend'
p8105
(F0.0
F1.0
tp8106
sS'waarde'
p8107
(F0.5
F0.0
tp8108
sS'dobberen'
p8109
(F0.25
F0.0
tp8110
sS'vrijwillig'
p8111
(F0.25
F0.0
tp8112
sS'grievend'
p8113
(F0.0
F1.0
tp8114
sS'adembenemend'
p8115
(F1.0
F0.0
tp8116
sS'perfect'
p8117
(F1.0
F0.0
tp8118
sS'zinloos'
p8119
(F0.0
F0.75
tp8120
sS'bloeien'
p8121
(F0.5
F0.0
tp8122
sS'verlokker'
p8123
(F0.0
F0.25
tp8124
sS'riviergod'
p8125
(F0.25
F0.0
tp8126
sS'fuifnummer'
p8127
(F0.25
F0.0
tp8128
sS'elegantie'
p8129
(F1.0
F0.0
tp8130
sS'uitzonderlijk'
p8131
(F0.75
F0.0
tp8132
sS'bedrog'
p8133
(F0.0
F1.0
tp8134
sS'onbarmhartig'
p8135
(F0.0
F1.0
tp8136
sS'broos'
p8137
(F0.25
F0.0
tp8138
sS'misslag'
p8139
(F0.0
F0.5
tp8140
sS'zielenrust'
p8141
(F0.75
F0.0
tp8142
sS'raffineren'
p8143
(F0.25
F0.0
tp8144
sS'feilloos'
p8145
(F1.0
F0.0
tp8146
sS'verlokken'
p8147
(F0.0
F0.25
tp8148
sS'verbijsterend'
p8149
(F0.0
F1.0
tp8150
sS'bijgelovig'
p8151
(F0.0
F0.5
tp8152
sS'aansluiten'
p8153
(F0.25
F0.0
tp8154
sS'mislukking'
p8155
(F0.0
F1.0
tp8156
sS'toe-eigening'
p8157
(F0.0
F0.25
tp8158
sS'scherpslijper'
p8159
(F0.0
F0.25
tp8160
sS'neokolonialisme'
p8161
(F0.0
F0.5
tp8162
sS'implementeren'
p8163
(F0.25
F0.0
tp8164
sS'nalatigheid'
p8165
(F0.0
F1.0
tp8166
sS'zwaarmoedigheid'
p8167
(F0.0
F0.75
tp8168
sS'klachtencommissie'
p8169
(F0.0
F0.25
tp8170
sS'illegaal'
p8171
(F0.0
F0.75
tp8172
sS'onderschatten'
p8173
(F0.0
F0.25
tp8174
sS'zonderling'
p8175
(F0.0
F0.5
tp8176
sS'renovatie'
p8177
(F0.25
F0.0
tp8178
sS'klachten'
p8179
(F0.0
F0.25
tp8180
sS'potschraper'
p8181
(F0.0
F0.5
tp8182
sS'kommervol'
p8183
(F0.0
F0.5
tp8184
sS'hulpeloos'
p8185
(F0.0
F0.5
tp8186
sS'contrair'
p8187
(F0.0
F0.25
tp8188
sS'frons'
p8189
(F0.0
F0.25
tp8190
sS'spelenderwijs'
p8191
(F0.5
F0.0
tp8192
sS'uitschuiftafel'
p8193
(F0.0
F0.25
tp8194
sS'duimen'
p8195
(F0.0
F0.25
tp8196
sS'kampbeul'
p8197
(F0.0
F0.5
tp8198
sS'doordraver'
p8199
(F0.0
F0.5
tp8200
sS'onteigening'
p8201
(F0.0
F0.75
tp8202
sS'verheugend'
p8203
(F1.0
F0.0
tp8204
sS'beuzelaar'
p8205
(F0.0
F0.75
tp8206
sS'zedeloosheid'
p8207
(F0.0
F1.0
tp8208
sS'grondlegger'
p8209
(F0.25
F0.0
tp8210
sS'snoodaard'
p8211
(F0.0
F1.0
tp8212
sS'zwetsen'
p8213
(F0.0
F1.0
tp8214
sS'overtrokken'
p8215
(F0.0
F0.25
tp8216
sS'ineenkrimpen'
p8217
(F0.0
F0.25
tp8218
sS'liefelijk'
p8219
(F1.0
F0.0
tp8220
sS'naarling'
p8221
(F0.0
F1.0
tp8222
sS'flair'
p8223
(F1.0
F0.0
tp8224
sS'hongerlijder'
p8225
(F0.0
F0.5
tp8226
sS'leeuwenkuil'
p8227
(F0.0
F0.5
tp8228
sS'gewonde'
p8229
(F0.0
F0.5
tp8230
sS'onbaatzuchtig'
p8231
(F1.0
F0.0
tp8232
sS'kakkineus'
p8233
(F0.0
F1.0
tp8234
sS'stervende'
p8235
(F0.0
F0.5
tp8236
sS'eersterangs'
p8237
(F0.75
F0.0
tp8238
sS'anti-raketraket'
p8239
(F0.0
F0.75
tp8240
sS'minachting'
p8241
(F0.0
F1.0
tp8242
sS'genoeglijk'
p8243
(F0.75
F0.0
tp8244
sS'ambiance'
p8245
(F0.5
F0.0
tp8246
sS'ergernis'
p8247
(F0.0
F1.0
tp8248
sS'piekfijn'
p8249
(F1.0
F0.0
tp8250
sS'paniek'
p8251
(F0.0
F1.0
tp8252
sS'kwaal'
p8253
(F0.0
F1.0
tp8254
sS'wangestalte'
p8255
(F0.0
F1.0
tp8256
sS'geschuffeld'
p8257
(F0.0
F0.25
tp8258
sS'kapitaalkrachtig'
p8259
(F0.25
F0.0
tp8260
sS'beducht'
p8261
(F0.0
F0.5
tp8262
sS'kwetsbaar'
p8263
(F0.0
F0.25
tp8264
sS'kwaad'
p8265
(F0.0
F1.0
tp8266
sS'liegen'
p8267
(F0.0
F0.75
tp8268
sS'fabelachtig'
p8269
(F1.0
F0.0
tp8270
sS'begeren'
p8271
(F0.25
F0.0
tp8272
sS'sanctioneren'
p8273
(F0.0
F0.5
tp8274
sS'weerloos'
p8275
(F0.0
F0.75
tp8276
sS'grootsheid'
p8277
(F0.75
F0.0
tp8278
sS'wereldomvattend'
p8279
(F0.25
F0.0
tp8280
sS'urgentie'
p8281
(F0.0
F0.25
tp8282
sS'neuken'
p8283
(F0.0
F0.25
tp8284
sS'chaos'
p8285
(F0.0
F1.0
tp8286
sS'onzalig'
p8287
(F0.0
F0.5
tp8288
sS'slachten'
p8289
(F0.0
F0.25
tp8290
sS'kelerelijer'
p8291
(F0.0
F1.0
tp8292
sS'stakkerig'
p8293
(F0.0
F1.0
tp8294
sS'leuren'
p8295
(F0.0
F0.25
tp8296
sS'verdrinking'
p8297
(F0.0
F0.5
tp8298
sS'stuk'
p8299
(F0.0
F0.25
tp8300
sS'bekennen'
p8301
(F0.0
F0.25
tp8302
sS'belastend'
p8303
(F0.0
F1.0
tp8304
sS'verheugen'
p8305
(F0.5
F0.0
tp8306
sS'verloop'
p8307
(F0.0
F0.25
tp8308
sS'armoe'
p8309
(F0.0
F0.5
tp8310
sS'vlek'
p8311
(F0.0
F0.5
tp8312
sS'ondeskundig'
p8313
(F0.0
F1.0
tp8314
sS'shit'
p8315
(F0.0
F1.0
tp8316
sS'afstotend'
p8317
(F0.0
F1.0
tp8318
sS'spot'
p8319
(F0.0
F0.75
tp8320
sS'stijlvol'
p8321
(F1.0
F0.0
tp8322
sS'openlijk'
p8323
(F0.25
F0.25
tp8324
sS'mopperpot'
p8325
(F0.0
F1.0
tp8326
sS'boerenpummel'
p8327
(F0.0
F1.0
tp8328
sS'maffioso'
p8329
(F0.0
F1.0
tp8330
sS'gerechtigheid'
p8331
(F1.0
F0.0
tp8332
sS'bleek'
p8333
(F0.0
F0.25
tp8334
sS'nederig'
p8335
(F0.0
F0.25
tp8336
sS'druktemaker'
p8337
(F0.0
F1.0
tp8338
sS'aspiratie'
p8339
(F0.75
F0.0
tp8340
sS'ongenoegzaam'
p8341
(F0.0
F1.0
tp8342
sS'hoerenloper'
p8343
(F0.0
F1.0
tp8344
sS'wrevel'
p8345
(F0.0
F0.5
tp8346
sS'heilig'
p8347
(F0.75
F0.0
tp8348
sS'asceet'
p8349
(F0.25
F0.0
tp8350
sS'angstwekkend'
p8351
(F0.0
F0.5
tp8352
sS'overbemesting'
p8353
(F0.0
F0.25
tp8354
sS'mythe'
p8355
(F0.0
F0.25
tp8356
sS'lawaaischopper'
p8357
(F0.0
F0.75
tp8358
sS'tegenzin'
p8359
(F0.0
F0.75
tp8360
sS'slopen'
p8361
(F0.0
F0.75
tp8362
sS'nationalisme'
p8363
(F0.0
F0.25
tp8364
sS'mieters'
p8365
(F0.5
F0.5
tp8366
sS'depressie'
p8367
(F0.0
F1.0
tp8368
sS'watertanden'
p8369
(F0.5
F0.0
tp8370
sS'alarmerend'
p8371
(F0.0
F1.0
tp8372
sS'troel'
p8373
(F0.0
F0.5
tp8374
sS'deskundige'
p8375
(F0.5
F0.0
tp8376
sS'pretentie'
p8377
(F0.0
F0.25
tp8378
sS'heilsleer'
p8379
(F0.25
F0.0
tp8380
sS'eenvoudigheid'
p8381
(F0.25
F0.0
tp8382
sS'valstrik'
p8383
(F0.0
F1.0
tp8384
sS'betoeterd'
p8385
(F0.0
F0.75
tp8386
sS'kinderachtig'
p8387
(F0.0
F1.0
tp8388
sS'ondersteunen'
p8389
(F0.5
F0.0
tp8390
sS'goedheid'
p8391
(F1.0
F0.0
tp8392
sS'premie'
p8393
(F0.25
F0.0
tp8394
sS'martelaarschap'
p8395
(F0.0
F0.25
tp8396
sS'super-de-luxe'
p8397
(F1.0
F0.0
tp8398
sS'emanciperen'
p8399
(F0.25
F0.0
tp8400
sS'sof'
p8401
(F0.0
F0.25
tp8402
sS'vriendelijkheid'
p8403
(F1.0
F0.0
tp8404
sS'ondernemer'
p8405
(F0.5
F0.0
tp8406
sS'scheiden'
p8407
(F0.0
F0.25
tp8408
sS'gruwelijkheid'
p8409
(F0.0
F1.0
tp8410
sS'drinker'
p8411
(F0.0
F0.5
tp8412
sS'verdraaid'
p8413
(F0.25
F0.5
tp8414
sS'verlakkerij'
p8415
(F0.0
F0.75
tp8416
sS'pauper'
p8417
(F0.0
F0.5
tp8418
sS'frustratoir'
p8419
(F0.0
F0.75
tp8420
sS'afnemen'
p8421
(F0.0
F0.25
tp8422
sS'bandeloos'
p8423
(F0.0
F1.0
tp8424
sS'festival'
p8425
(F0.25
F0.0
tp8426
sS'gevaar'
p8427
(F0.0
F0.75
tp8428
sS'stram'
p8429
(F0.0
F0.75
tp8430
sS'zakkenwasser'
p8431
(F0.0
F1.0
tp8432
sS'oneigenlijk'
p8433
(F0.0
F0.25
tp8434
sS'bezetene'
p8435
(F0.0
F0.75
tp8436
sS'mal'
p8437
(F0.0
F0.75
tp8438
sS'grijnslachen'
p8439
(F0.0
F0.5
tp8440
sS'fataal'
p8441
(F0.0
F1.0
tp8442
sS'tippen'
p8443
(F0.25
F0.0
tp8444
sS'afwasser'
p8445
(F0.0
F0.25
tp8446
sS'devoot'
p8447
(F0.25
F0.0
tp8448
sS'bevorderlijk'
p8449
(F0.75
F0.0
tp8450
sS'zwartekousenkerk'
p8451
(F0.0
F0.25
tp8452
sS'nut'
p8453
(F0.25
F0.0
tp8454
sS'ongecompliceerd'
p8455
(F0.75
F0.0
tp8456
sS'fobie'
p8457
(F0.0
F0.5
tp8458
sS'hartverscheurend'
p8459
(F0.0
F0.75
tp8460
sS'hansworst'
p8461
(F0.0
F1.0
tp8462
sS'hartbrekend'
p8463
(F0.0
F1.0
tp8464
sS'feestvierder'
p8465
(F1.0
F0.0
tp8466
sS'onvermogen'
p8467
(F0.0
F0.25
tp8468
sS'onlogisch'
p8469
(F0.0
F0.25
tp8470
sS'verstrooien'
p8471
(F0.0
F0.25
tp8472
sS'geleerd'
p8473
(F0.75
F0.0
tp8474
sS'toekennen'
p8475
(F0.5
F0.0
tp8476
sS'onbelemmerd'
p8477
(F0.75
F0.0
tp8478
sS'onkwetsbaar'
p8479
(F0.75
F0.0
tp8480
sS'idee-fixe'
p8481
(F0.0
F0.5
tp8482
sS'spannend'
p8483
(F0.75
F0.0
tp8484
sS'rondvaart'
p8485
(F0.25
F0.0
tp8486
sS'grootmoedig'
p8487
(F0.5
F0.25
tp8488
sS'keerzijde'
p8489
(F0.0
F0.5
tp8490
sS'ezelachtigheid'
p8491
(F0.0
F1.0
tp8492
sS'steek'
p8493
(F0.0
F0.25
tp8494
sS's.s.'
p8495
(F0.0
F0.25
tp8496
sS'ongelegen'
p8497
(F0.0
F0.75
tp8498
sS'verwarring'
p8499
(F0.0
F1.0
tp8500
sS'loven'
p8501
(F0.5
F0.0
tp8502
sS'klootzak'
p8503
(F0.0
F1.0
tp8504
sS'kameraad'
p8505
(F0.5
F0.0
tp8506
sS'grillig'
p8507
(F0.0
F0.5
tp8508
sS'zelfbedrog'
p8509
(F0.0
F1.0
tp8510
sS'ruwheid'
p8511
(F0.0
F0.75
tp8512
sS'voorkeur'
p8513
(F0.25
F0.0
tp8514
sS'hoofs'
p8515
(F0.25
F0.0
tp8516
sS'winst'
p8517
(F1.0
F0.0
tp8518
sS'lover'
p8519
(F0.75
F0.0
tp8520
sS'staking'
p8521
(F0.0
F0.25
tp8522
sS'barmhartig'
p8523
(F1.0
F0.0
tp8524
sS'na\xc3\xafef'
p8525
(F0.0
F0.75
tp8526
sS'galgebrok'
p8527
(F0.0
F0.25
tp8528
sS'ongevoeligheid'
p8529
(F0.0
F1.0
tp8530
sS'bloedspoor'
p8531
(F0.0
F0.5
tp8532
sS'beter'
p8533
(F0.75
F0.0
tp8534
sS'onaardig'
p8535
(F0.0
F0.75
tp8536
sS'vleesklomp'
p8537
(F0.0
F0.25
tp8538
sS'nederigheid'
p8539
(F0.25
F0.0
tp8540
sS'hagel'
p8541
(F0.0
F0.25
tp8542
sS'blij'
p8543
(F1.0
F0.0
tp8544
sS'sacherijn'
p8545
(F0.0
F0.75
tp8546
sS'rouwkapel'
p8547
(F0.0
F0.25
tp8548
sS'spaarzaamheid'
p8549
(F0.75
F0.0
tp8550
sS'verovering'
p8551
(F0.25
F0.0
tp8552
sS'immoreel'
p8553
(F0.0
F1.0
tp8554
sS'overreden'
p8555
(F0.25
F0.0
tp8556
sS'schittering'
p8557
(F1.0
F0.0
tp8558
sS'respijt'
p8559
(F0.0
F0.25
tp8560
sS'haantje-vooruit'
p8561
(F0.0
F0.5
tp8562
sS'wreed'
p8563
(F0.0
F1.0
tp8564
sS'gemenerik'
p8565
(F0.0
F1.0
tp8566
sS'prijs'
p8567
(F0.5
F0.0
tp8568
sS'genadeloos'
p8569
(F0.0
F0.5
tp8570
sS'hondenlul'
p8571
(F0.0
F1.0
tp8572
sS'schril'
p8573
(F0.0
F0.25
tp8574
sS'schrikkelijk'
p8575
(F0.0
F1.0
tp8576
sS'zuurpruim'
p8577
(F0.0
F1.0
tp8578
sS'smerig'
p8579
(F0.0
F1.0
tp8580
sS'onderbroekelol'
p8581
(F0.0
F0.25
tp8582
sS'empathie'
p8583
(F0.5
F0.0
tp8584
sS'gunnen'
p8585
(F1.0
F0.0
tp8586
sS'onkunde'
p8587
(F0.0
F0.5
tp8588
sS'welriekend'
p8589
(F0.75
F0.0
tp8590
sS'mis'
p8591
(F0.0
F0.5
tp8592
sS'divers'
p8593
(F0.25
F0.0
tp8594
sS'vermoeidheid'
p8595
(F0.0
F0.75
tp8596
sS'vredesvoorstel'
p8597
(F0.25
F0.0
tp8598
sS'vetzak'
p8599
(F0.0
F1.0
tp8600
sS'omverschoppen'
p8601
(F0.0
F0.25
tp8602
sS'onwaar'
p8603
(F0.0
F1.0
tp8604
sS'clash'
p8605
(F0.0
F0.5
tp8606
sS'terecht'
p8607
(F0.25
F0.0
tp8608
sS'handarbeider'
p8609
(F0.0
F0.25
tp8610
sS'storend'
p8611
(F0.0
F1.0
tp8612
sS'bastaardzuster'
p8613
(F0.0
F0.75
tp8614
sS'vloek'
p8615
(F0.0
F0.5
tp8616
sS'verveling'
p8617
(F0.0
F1.0
tp8618
sS'moeke'
p8619
(F0.0
F0.25
tp8620
sS'bevlekken'
p8621
(F0.0
F0.75
tp8622
sS'discordantie'
p8623
(F0.0
F0.25
tp8624
sS'lellen'
p8625
(F0.0
F0.5
tp8626
sS'zwart'
p8627
(F0.0
F0.75
tp8628
sS'fervent'
p8629
(F0.25
F0.0
tp8630
sS'miltontsteking'
p8631
(F0.0
F0.25
tp8632
sS'expert'
p8633
(F1.0
F0.0
tp8634
sS'wandaad'
p8635
(F0.0
F1.0
tp8636
sS'ontredderd'
p8637
(F0.0
F0.75
tp8638
sS'gruweldaad'
p8639
(F0.0
F1.0
tp8640
sS'jubelstemming'
p8641
(F1.0
F0.0
tp8642
sS'fier'
p8643
(F0.25
F0.0
tp8644
sS'bruinhemd'
p8645
(F0.0
F0.5
tp8646
sS'tweeslachtigheid'
p8647
(F0.0
F0.25
tp8648
sS'steun'
p8649
(F1.0
F0.0
tp8650
sS'patjakker'
p8651
(F0.0
F1.0
tp8652
sS'hulde'
p8653
(F0.5
F0.0
tp8654
sS'welvarendheid'
p8655
(F1.0
F0.0
tp8656
sS'absurd'
p8657
(F0.0
F1.0
tp8658
sS'boffer'
p8659
(F1.0
F0.0
tp8660
sS'fiasco'
p8661
(F0.0
F1.0
tp8662
sS'glamourgirl'
p8663
(F0.5
F0.0
tp8664
sS'straf'
p8665
(F0.0
F0.25
tp8666
sS'bedroeven'
p8667
(F0.0
F0.75
tp8668
sS'waternimf'
p8669
(F0.25
F0.0
tp8670
sS'dijk'
p8671
(F0.25
F0.0
tp8672
sS'losjes'
p8673
(F0.5
F0.0
tp8674
sS'sluitend'
p8675
(F0.5
F0.0
tp8676
sS'onwijs'
p8677
(F0.5
F0.0
tp8678
sS'validiteit'
p8679
(F0.5
F0.0
tp8680
sS'verlof'
p8681
(F0.25
F0.0
tp8682
sS'lijpo'
p8683
(F0.0
F1.0
tp8684
sS'onwetend'
p8685
(F0.0
F0.75
tp8686
sS'ziektekiem'
p8687
(F0.0
F0.5
tp8688
sS'jeuk'
p8689
(F0.0
F0.25
tp8690
sS'heikneuter'
p8691
(F0.0
F1.0
tp8692
sS'wonderwel'
p8693
(F1.0
F0.0
tp8694
sS'vechten'
p8695
(F0.0
F0.5
tp8696
sS'argwaan'
p8697
(F0.0
F0.75
tp8698
sS'romannetje'
p8699
(F0.0
F0.25
tp8700
sS'berisping'
p8701
(F0.0
F0.25
tp8702
sS'degraderen'
p8703
(F0.0
F1.0
tp8704
sS'moes'
p8705
(F0.0
F0.25
tp8706
sS'bedreven'
p8707
(F1.0
F0.0
tp8708
sS'gevoelloos'
p8709
(F0.0
F1.0
tp8710
sS'kracht'
p8711
(F0.75
F0.0
tp8712
sS'verlangen'
p8713
(F0.25
F0.0
tp8714
sS'uitkering'
p8715
(F0.0
F0.25
tp8716
sS'knar'
p8717
(F0.0
F0.75
tp8718
sS'kalmte'
p8719
(F0.5
F0.0
tp8720
sS'bug'
p8721
(F0.0
F0.5
tp8722
sS'gedagvaarde'
p8723
(F0.0
F0.25
tp8724
sS'verbijstering'
p8725
(F0.0
F1.0
tp8726
sS'doorzetter'
p8727
(F1.0
F0.0
tp8728
sS'driftig'
p8729
(F0.0
F0.5
tp8730
sS'krullenbol'
p8731
(F0.25
F0.0
tp8732
sS'afvallige'
p8733
(F0.0
F1.0
tp8734
sS'krakkemikkig'
p8735
(F0.0
F1.0
tp8736
sS'discontinu'
p8737
(F0.0
F0.25
tp8738
sS'rusteloosheid'
p8739
(F0.0
F1.0
tp8740
sS'kotsmisselijk'
p8741
(F0.0
F0.5
tp8742
sS'beroven'
p8743
(F0.0
F0.75
tp8744
sS'gescheiden'
p8745
(F0.0
F0.25
tp8746
sS'gemak'
p8747
(F1.0
F0.0
tp8748
sS'passend'
p8749
(F1.0
F0.0
tp8750
sS'contradictoir'
p8751
(F0.0
F1.0
tp8752
sS'boycot'
p8753
(F0.0
F0.5
tp8754
sS'compagnon'
p8755
(F0.5
F0.0
tp8756
sS'verwoesten'
p8757
(F0.0
F1.0
tp8758
sS'zeveraar'
p8759
(F0.0
F0.75
tp8760
sS'doorkomen'
p8761
(F0.0
F0.25
tp8762
sS'bedotten'
p8763
(F0.0
F0.5
tp8764
sS'wanbetaler'
p8765
(F0.0
F1.0
tp8766
sS'krampachtig'
p8767
(F0.0
F0.25
tp8768
sS'simpel'
p8769
(F0.0
F0.25
tp8770
sS'frenetiek'
p8771
(F0.0
F0.25
tp8772
sS'booswicht'
p8773
(F0.0
F1.0
tp8774
sS'verraderlijk'
p8775
(F0.0
F1.0
tp8776
sS'geliefde'
p8777
(F0.5
F0.0
tp8778
sS'grap'
p8779
(F0.25
F0.0
tp8780
sS'parasiet'
p8781
(F0.0
F0.5
tp8782
sS'onbuigzaam'
p8783
(F0.0
F0.75
tp8784
sS'bedroefdheid'
p8785
(F0.0
F1.0
tp8786
sS'vief'
p8787
(F0.5
F0.0
tp8788
sS'inaccuraat'
p8789
(F0.0
F0.75
tp8790
sS'overduidelijk'
p8791
(F0.25
F0.0
tp8792
sS'ruptuur'
p8793
(F0.0
F0.25
tp8794
sS'apocalyptisch'
p8795
(F0.0
F0.5
tp8796
sS'compliment'
p8797
(F1.0
F0.0
tp8798
sS'agressor'
p8799
(F0.0
F1.0
tp8800
sS'gierigheid'
p8801
(F0.0
F1.0
tp8802
sS'afgesleten'
p8803
(F0.0
F0.25
tp8804
sS'rein'
p8805
(F0.5
F0.0
tp8806
sS'vies'
p8807
(F0.0
F1.0
tp8808
sS'Verlichting'
p8809
(F0.75
F0.0
tp8810
sS'graf'
p8811
(F0.0
F0.5
tp8812
sS'bewonderenswaardig'
p8813
(F1.0
F0.0
tp8814
sS'armoedzaaier'
p8815
(F0.0
F1.0
tp8816
sS'mesjokke'
p8817
(F0.0
F1.0
tp8818
sS'vijandschap'
p8819
(F0.0
F0.75
tp8820
sS'pijler'
p8821
(F0.25
F0.0
tp8822
sS'nuttig'
p8823
(F1.0
F0.0
tp8824
sS'buitenkansje'
p8825
(F0.5
F0.0
tp8826
sS'kwalificeren'
p8827
(F0.5
F0.0
tp8828
sS'brompot'
p8829
(F0.0
F1.0
tp8830
sS'bepleiter'
p8831
(F0.25
F0.0
tp8832
sS'deernis'
p8833
(F0.0
F0.25
tp8834
sS'schorten'
p8835
(F0.0
F0.5
tp8836
sS'leesbaar'
p8837
(F1.0
F0.0
tp8838
sS'onomkoopbaar'
p8839
(F1.0
F0.0
tp8840
sS'glashelder'
p8841
(F1.0
F0.0
tp8842
sS'hartediefje'
p8843
(F1.0
F0.0
tp8844
sS'teleurstellen'
p8845
(F0.0
F0.5
tp8846
sS'wantrouwend'
p8847
(F0.0
F1.0
tp8848
sS'begaafd'
p8849
(F1.0
F0.0
tp8850
sS'vijandigheid'
p8851
(F0.0
F0.75
tp8852
sS'hartedief'
p8853
(F1.0
F0.0
tp8854
sS'randinzinking'
p8855
(F0.0
F0.5
tp8856
sS'deskundoloog'
p8857
(F0.0
F0.25
tp8858
sS'geklets'
p8859
(F0.0
F0.75
tp8860
sS'nichtenrock'
p8861
(F0.0
F0.75
tp8862
sS'nauwkeurig'
p8863
(F1.0
F0.0
tp8864
sS'defici\xc3\xabnt'
p8865
(F0.0
F0.5
tp8866
sS'lui'
p8867
(F0.0
F1.0
tp8868
sS'sacrosanct'
p8869
(F0.25
F0.25
tp8870
sS'lul'
p8871
(F0.0
F1.0
tp8872
sS'gewrichtsontsteking'
p8873
(F0.0
F0.25
tp8874
sS'moeder'
p8875
(F0.25
F0.0
tp8876
sS'ontwrichting'
p8877
(F0.0
F0.5
tp8878
sS'onzedig'
p8879
(F0.0
F1.0
tp8880
sS'affectief'
p8881
(F0.5
F0.0
tp8882
sS'achtervolgen'
p8883
(F0.0
F0.5
tp8884
sS'veelzijdig'
p8885
(F0.5
F0.0
tp8886
sS'voordeel'
p8887
(F0.5
F0.0
tp8888
sS'flater'
p8889
(F0.0
F1.0
tp8890
sS'standje'
p8891
(F0.0
F0.25
tp8892
sS'insolvabiliteit'
p8893
(F0.0
F0.5
tp8894
sS'vertrouwen'
p8895
(F0.25
F0.0
tp8896
sS'geitenbreier'
p8897
(F0.0
F0.25
tp8898
sS'pijnlijk'
p8899
(F0.0
F1.0
tp8900
sS'ongevoelig'
p8901
(F0.0
F0.75
tp8902
sS'volksgeloof'
p8903
(F0.0
F0.25
tp8904
sS'onzedelijk'
p8905
(F0.0
F1.0
tp8906
sS'kwetteren'
p8907
(F0.0
F0.75
tp8908
sS'manwijf'
p8909
(F0.0
F0.5
tp8910
sS'achternazitten'
p8911
(F0.0
F0.25
tp8912
sS'dageraad'
p8913
(F0.25
F0.0
tp8914
sS'donkerte'
p8915
(F0.0
F0.25
tp8916
sS'isoleren'
p8917
(F0.0
F0.25
tp8918
sS'schat'
p8919
(F0.5
F0.0
tp8920
sS'opduvelen'
p8921
(F0.0
F1.0
tp8922
sS'verspilling'
p8923
(F0.0
F1.0
tp8924
sS'insuffici\xc3\xabnt'
p8925
(F0.0
F0.75
tp8926
sS'ramp'
p8927
(F0.0
F1.0
tp8928
sS'saamhorigheid'
p8929
(F0.75
F0.0
tp8930
sS'vreselijk'
p8931
(F0.0
F1.0
tp8932
sS'baarkruk'
p8933
(F0.0
F0.25
tp8934
sS'kunstje'
p8935
(F0.0
F0.25
tp8936
sS'valsaard'
p8937
(F0.0
F1.0
tp8938
sS'krachtdadig'
p8939
(F1.0
F0.0
tp8940
sS'superioriteit'
p8941
(F0.75
F0.0
tp8942
sS'achtenswaard'
p8943
(F0.5
F0.0
tp8944
sS'inventiviteit'
p8945
(F0.5
F0.0
tp8946
sS'schuinsmarcheerder'
p8947
(F0.0
F1.0
tp8948
sS'conservatisme'
p8949
(F0.0
F0.25
tp8950
sS'vent'
p8951
(F0.5
F0.0
tp8952
sS'relevant'
p8953
(F0.75
F0.0
tp8954
sS'schampen'
p8955
(F0.0
F0.25
tp8956
sS'hopeloos'
p8957
(F0.0
F1.0
tp8958
sS'minimumloner'
p8959
(F0.0
F1.0
tp8960
sS'harmonie'
p8961
(F0.5
F0.0
tp8962
sS'martelaar'
p8963
(F0.5
F0.25
tp8964
sS'stommerd'
p8965
(F0.0
F1.0
tp8966
sS'opstap'
p8967
(F0.25
F0.0
tp8968
sS'ongegeneerd'
p8969
(F0.0
F0.5
tp8970
sS'overleven'
p8971
(F0.25
F0.0
tp8972
sS'oplazeren'
p8973
(F0.0
F1.0
tp8974
sS'plezierig'
p8975
(F1.0
F0.0
tp8976
sS'aanpassingsvermogen'
p8977
(F0.5
F0.0
tp8978
sS'perseveratie'
p8979
(F0.0
F0.25
tp8980
sS'praal'
p8981
(F0.75
F0.0
tp8982
sS'onwelkom'
p8983
(F0.0
F0.75
tp8984
sS'bedrieglijk'
p8985
(F0.0
F1.0
tp8986
sS'welzijn'
p8987
(F0.75
F0.0
tp8988
sS'overschot'
p8989
(F0.25
F0.0
tp8990
sS'preken'
p8991
(F0.0
F0.25
tp8992
sS'hersenletsel'
p8993
(F0.0
F0.25
tp8994
sS'polemiseren'
p8995
(F0.0
F0.5
tp8996
sS'vlekkeloos'
p8997
(F1.0
F0.0
tp8998
sS'bekendheid'
p8999
(F0.25
F0.0
tp9000
sS'convenientie'
p9001
(F0.25
F0.0
tp9002
sS'afzetten'
p9003
(F0.0
F0.5
tp9004
sS'gretigheid'
p9005
(F0.25
F0.5
tp9006
sS'corrosie'
p9007
(F0.0
F0.25
tp9008
sS'motiveren'
p9009
(F0.75
F0.0
tp9010
sS'godsjammerlijk'
p9011
(F0.0
F1.0
tp9012
sS'lamgat'
p9013
(F0.0
F0.5
tp9014
sS'gieren'
p9015
(F0.25
F0.0
tp9016
sS'kuttekop'
p9017
(F0.0
F1.0
tp9018
sS'kwasterig'
p9019
(F0.0
F0.75
tp9020
sS'uitpraten'
p9021
(F0.25
F0.0
tp9022
sS'verraden'
p9023
(F0.0
F0.75
tp9024
sS'altruist'
p9025
(F0.5
F0.0
tp9026
sS'toegeven'
p9027
(F0.25
F0.0
tp9028
sS'marionet'
p9029
(F0.0
F0.25
tp9030
sS'oomzegster'
p9031
(F0.0
F0.25
tp9032
sS'waterlander'
p9033
(F0.0
F0.25
tp9034
sS'restant'
p9035
(F0.0
F0.25
tp9036
sS'mafketel'
p9037
(F0.0
F0.75
tp9038
sS'ridder'
p9039
(F0.25
F0.0
tp9040
sS'dwaaltuin'
p9041
(F0.0
F0.25
tp9042
sS'gehucht'
p9043
(F0.0
F0.5
tp9044
sS'krachtcentrale'
p9045
(F0.0
F0.25
tp9046
sS'bevrediging'
p9047
(F0.75
F0.0
tp9048
sS'belabberd'
p9049
(F0.0
F1.0
tp9050
sS'knorrepot'
p9051
(F0.0
F1.0
tp9052
sS'zorgeloos'
p9053
(F0.75
F0.0
tp9054
sS'wanbedrijf'
p9055
(F0.0
F1.0
tp9056
sS'terughoudendheid'
p9057
(F0.0
F0.5
tp9058
sS'fameus'
p9059
(F0.5
F0.25
tp9060
sS'verbanning'
p9061
(F0.0
F0.75
tp9062
sS'subliem'
p9063
(F0.5
F0.0
tp9064
sS'opruier'
p9065
(F0.0
F0.75
tp9066
sS'hartendief'
p9067
(F1.0
F0.0
tp9068
sS'determinist'
p9069
(F0.0
F0.25
tp9070
sS'gewrichtsreuma'
p9071
(F0.0
F0.25
tp9072
sS'hostiliteit'
p9073
(F0.0
F0.5
tp9074
sS'paardenlul'
p9075
(F0.0
F1.0
tp9076
sS'aanhouder'
p9077
(F0.25
F0.0
tp9078
sS'gunstig'
p9079
(F0.75
F0.0
tp9080
sS'slordig'
p9081
(F0.0
F1.0
tp9082
sS'woedend'
p9083
(F0.0
F1.0
tp9084
sS'capabel'
p9085
(F1.0
F0.0
tp9086
sS'repulsie'
p9087
(F0.0
F0.5
tp9088
sS'adstructie'
p9089
(F0.0
F0.25
tp9090
sS'wegslaan'
p9091
(F0.0
F0.25
tp9092
sS'invaliditeit'
p9093
(F0.0
F0.5
tp9094
sS'allergrootst'
p9095
(F0.75
F0.0
tp9096
sS'ironisch'
p9097
(F0.0
F0.25
tp9098
sS'approberen'
p9099
(F0.25
F0.0
tp9100
sS'rijk'
p9101
(F1.0
F0.0
tp9102
sS'jubelen'
p9103
(F0.75
F0.0
tp9104
sS'zonneklaar'
p9105
(F1.0
F0.0
tp9106
sS'opzuipen'
p9107
(F0.0
F0.25
tp9108
sS'obsessie'
p9109
(F0.0
F0.75
tp9110
sS'leuteren'
p9111
(F0.0
F1.0
tp9112
sS'helper'
p9113
(F0.75
F0.0
tp9114
sS'tevredenheid'
p9115
(F1.0
F0.0
tp9116
sS'onbeschaamd'
p9117
(F0.0
F0.5
tp9118
sS'hondelul'
p9119
(F0.0
F1.0
tp9120
sS'mishagen'
p9121
(F0.0
F0.75
tp9122
sS'verdieping'
p9123
(F0.25
F0.0
tp9124
sS'lust'
p9125
(F0.25
F0.0
tp9126
sS'patstelling'
p9127
(F0.0
F0.5
tp9128
sS'klaaglied'
p9129
(F0.0
F0.25
tp9130
sS'baldadig'
p9131
(F0.0
F1.0
tp9132
sS'partner'
p9133
(F0.25
F0.0
tp9134
sS'debet'
p9135
(F0.0
F0.25
tp9136
sS'belegeren'
p9137
(F0.0
F0.5
tp9138
sS'simplistisch'
p9139
(F0.0
F0.75
tp9140
sS'leemte'
p9141
(F0.0
F0.25
tp9142
sS'verantwoorden'
p9143
(F0.0
F0.25
tp9144
sS'optimaal'
p9145
(F1.0
F0.0
tp9146
sS'ongeduldig'
p9147
(F0.0
F1.0
tp9148
sS'warhoofd'
p9149
(F0.0
F0.5
tp9150
sS'martelen'
p9151
(F0.0
F1.0
tp9152
sS'beminde'
p9153
(F0.5
F0.0
tp9154
sS'foef'
p9155
(F0.25
F0.0
tp9156
sS'knus'
p9157
(F1.0
F0.0
tp9158
sS'jennen'
p9159
(F0.0
F1.0
tp9160
sS'getikt'
p9161
(F0.0
F1.0
tp9162
sS'ongelooflijk'
p9163
(F0.0
F0.25
tp9164
sS'hardliner'
p9165
(F0.0
F0.5
tp9166
sS'zielig'
p9167
(F0.0
F0.75
tp9168
sS'domoor'
p9169
(F0.0
F1.0
tp9170
sS'hangmat'
p9171
(F0.25
F0.0
tp9172
sS'vastzitten'
p9173
(F0.0
F0.25
tp9174
sS'doodleuk'
p9175
(F0.0
F0.25
tp9176
sS'perfectionistisch'
p9177
(F0.25
F0.0
tp9178
sS'outcast'
p9179
(F0.0
F0.75
tp9180
sS'ongetraind'
p9181
(F0.0
F0.75
tp9182
sS'verstandhouding'
p9183
(F0.25
F0.0
tp9184
sS'vitter'
p9185
(F0.0
F1.0
tp9186
sS'jeugdliefde'
p9187
(F0.5
F0.0
tp9188
sS'heiden'
p9189
(F0.0
F0.5
tp9190
sS'koper'
p9191
(F0.25
F0.0
tp9192
sS'rottig'
p9193
(F0.0
F1.0
tp9194
sS'onthutst'
p9195
(F0.0
F1.0
tp9196
sS'heerlijkheid'
p9197
(F1.0
F0.0
tp9198
sS'genoegen'
p9199
(F1.0
F0.0
tp9200
sS'wegdoen'
p9201
(F0.0
F0.25
tp9202
sS'overgevoelig'
p9203
(F0.0
F1.0
tp9204
sS'opwachten'
p9205
(F0.0
F0.25
tp9206
sS'botsing'
p9207
(F0.0
F0.25
tp9208
sS'smachten'
p9209
(F0.0
F0.25
tp9210
sS'onbehoorlijkheid'
p9211
(F0.0
F1.0
tp9212
sS'terrorisme'
p9213
(F0.0
F1.0
tp9214
sS'gladjes'
p9215
(F0.0
F0.75
tp9216
sS'tetteren'
p9217
(F0.0
F0.75
tp9218
sS'zwarthemd'
p9219
(F0.0
F0.5
tp9220
sS'timide'
p9221
(F0.0
F0.5
tp9222
sS'kaaljakker'
p9223
(F0.0
F0.75
tp9224
sS'afval'
p9225
(F0.0
F0.25
tp9226
sS'koppig'
p9227
(F0.0
F0.75
tp9228
sS'gekruid'
p9229
(F0.25
F0.0
tp9230
sS'schending'
p9231
(F0.0
F1.0
tp9232
sS'dubbelzinnigheid'
p9233
(F0.0
F0.25
tp9234
sS'deletie'
p9235
(F0.0
F0.25
tp9236
sS'zuiveren'
p9237
(F0.25
F0.25
tp9238
sS'vereerder'
p9239
(F0.25
F0.0
tp9240
sS'raffinement'
p9241
(F0.25
F0.25
tp9242
sS'omvallen'
p9243
(F0.0
F0.25
tp9244
sS'jengel'
p9245
(F0.0
F0.75
tp9246
sS'hoogachting'
p9247
(F0.75
F0.0
tp9248
sS'majesteit'
p9249
(F0.25
F0.0
tp9250
sS'schenden'
p9251
(F0.0
F0.75
tp9252
sS'stranddief'
p9253
(F0.0
F0.5
tp9254
sS'misleiding'
p9255
(F0.0
F1.0
tp9256
sS'zeurpiet'
p9257
(F0.0
F1.0
tp9258
sS'vernietigend'
p9259
(F0.0
F1.0
tp9260
sS'ongenoegen'
p9261
(F0.0
F0.75
tp9262
sS'ontspannen'
p9263
(F0.25
F0.0
tp9264
sS'litanie'
p9265
(F0.0
F0.5
tp9266
sS'presteren'
p9267
(F0.25
F0.0
tp9268
sS'erbarmelijk'
p9269
(F0.25
F0.5
tp9270
sS'aversie'
p9271
(F0.0
F0.5
tp9272
sS'articuleren'
p9273
(F0.25
F0.0
tp9274
sS'storen'
p9275
(F0.0
F0.5
tp9276
sS'zwijnenkeet'
p9277
(F0.0
F1.0
tp9278
sS'laconiek'
p9279
(F0.0
F1.0
tp9280
sS'lelijk'
p9281
(F0.0
F1.0
tp9282
sS'onderkruiper'
p9283
(F0.0
F1.0
tp9284
sS'verworpene'
p9285
(F0.0
F0.75
tp9286
sS'bedachtzaamheid'
p9287
(F0.5
F0.0
tp9288
sS'wee'
p9289
(F0.0
F0.25
tp9290
sS'verstijfd'
p9291
(F0.0
F0.75
tp9292
sS'prostituant'
p9293
(F0.0
F0.25
tp9294
sS'guts'
p9295
(F0.25
F0.0
tp9296
sS'toevertrouwen'
p9297
(F0.25
F0.0
tp9298
sS'eigendunkelijk'
p9299
(F0.0
F0.25
tp9300
sS'semi-ambtenaar'
p9301
(F0.0
F0.75
tp9302
sS'gelofte'
p9303
(F0.5
F0.0
tp9304
sS'terugdoen'
p9305
(F0.25
F0.0
tp9306
sS'insulteren'
p9307
(F0.0
F0.25
tp9308
sS'bewerkelijk'
p9309
(F0.0
F0.5
tp9310
sS'nauwgezet'
p9311
(F0.5
F0.0
tp9312
sS'simuleren'
p9313
(F0.0
F0.25
tp9314
sS'crack'
p9315
(F0.0
F0.25
tp9316
sS'gehard'
p9317
(F0.5
F0.0
tp9318
sS'redundantie'
p9319
(F0.0
F0.5
tp9320
sS'laks'
p9321
(F0.0
F1.0
tp9322
sS'samenzwering'
p9323
(F0.0
F1.0
tp9324
sS'modieus'
p9325
(F0.75
F0.0
tp9326
sS'huiduitslag'
p9327
(F0.0
F0.25
tp9328
sS'vriendschappelijkheid'
p9329
(F1.0
F0.0
tp9330
sS'afstand'
p9331
(F0.0
F0.25
tp9332
sS'prachtstuk'
p9333
(F0.5
F0.0
tp9334
sS'pief'
p9335
(F0.0
F0.5
tp9336
sS'gelijkmatig'
p9337
(F0.5
F0.0
tp9338
sS'volksbijgeloof'
p9339
(F0.0
F0.25
tp9340
sS'trammelant'
p9341
(F0.0
F1.0
tp9342
sS'weerbarstig'
p9343
(F0.0
F0.5
tp9344
sS'prullenboel'
p9345
(F0.0
F0.5
tp9346
sS'kloothommel'
p9347
(F0.0
F1.0
tp9348
sS'harmoniseren'
p9349
(F0.75
F0.0
tp9350
sS'realiseerbaar'
p9351
(F0.75
F0.0
tp9352
sS'rondspoken'
p9353
(F0.0
F0.25
tp9354
sS'dommerik'
p9355
(F0.0
F1.0
tp9356
sS'figuur'
p9357
(F0.0
F0.25
tp9358
sS'laaiend'
p9359
(F0.0
F0.75
tp9360
sS'pitloos'
p9361
(F0.0
F0.75
tp9362
sS'heer'
p9363
(F0.25
F0.0
tp9364
sS'onnet'
p9365
(F0.0
F0.5
tp9366
sS'genadig'
p9367
(F1.0
F0.0
tp9368
sS'opwindend'
p9369
(F0.5
F0.0
tp9370
sS'onrealistisch'
p9371
(F0.0
F0.75
tp9372
sS'begeleiding'
p9373
(F0.25
F0.0
tp9374
sS'stennis'
p9375
(F0.0
F1.0
tp9376
sS'zoetvloeiend'
p9377
(F0.5
F0.0
tp9378
sS'clown'
p9379
(F0.25
F0.0
tp9380
sS'boosaardig'
p9381
(F0.0
F1.0
tp9382
sS'keerzij'
p9383
(F0.0
F0.25
tp9384
sS'begrijpelijk'
p9385
(F0.5
F0.0
tp9386
sS'chick'
p9387
(F0.5
F0.0
tp9388
sS'karikatuur'
p9389
(F0.0
F0.25
tp9390
sS'soft'
p9391
(F0.0
F0.5
tp9392
sS'stoker'
p9393
(F0.0
F0.75
tp9394
sS'winnen'
p9395
(F1.0
F0.0
tp9396
sS'harmoni\xc3\xabren'
p9397
(F0.5
F0.0
tp9398
sS'omlaag'
p9399
(F0.0
F0.25
tp9400
sS'vervolgen'
p9401
(F0.0
F0.25
tp9402
sS'shabby'
p9403
(F0.0
F1.0
tp9404
sS'euforie'
p9405
(F1.0
F0.0
tp9406
sS'triestig'
p9407
(F0.0
F1.0
tp9408
sS'flagrant'
p9409
(F0.25
F0.5
tp9410
sS'genotzoeker'
p9411
(F0.5
F0.0
tp9412
sS'junk'
p9413
(F0.0
F1.0
tp9414
sS'zanik'
p9415
(F0.0
F1.0
tp9416
sS'overeenkomst'
p9417
(F0.25
F0.0
tp9418
sS'homo'
p9419
(F0.0
F0.25
tp9420
sS'tegenstrijdigheid'
p9421
(F0.0
F0.5
tp9422
sS'bezwaar'
p9423
(F0.0
F0.5
tp9424
sS'onderuitgaan'
p9425
(F0.0
F0.5
tp9426
sS'kits'
p9427
(F0.5
F0.0
tp9428
sS'luchthartig'
p9429
(F0.75
F0.0
tp9430
sS'halsstarrig'
p9431
(F0.0
F1.0
tp9432
sS'jojo'
p9433
(F0.0
F0.25
tp9434
sS'kei'
p9435
(F0.5
F0.0
tp9436
sS'vrij'
p9437
(F0.5
F0.0
tp9438
sS'kloof'
p9439
(F0.0
F0.25
tp9440
sS'krukkig'
p9441
(F0.0
F0.75
tp9442
sS'verfijnen'
p9443
(F0.75
F0.0
tp9444
sS'overheersing'
p9445
(F0.0
F0.5
tp9446
sS'doodwerken'
p9447
(F0.0
F0.5
tp9448
sS'doen'
p9449
(F0.25
F0.0
tp9450
sS'ondervoed'
p9451
(F0.0
F0.5
tp9452
sS'kwekkebekken'
p9453
(F0.0
F0.75
tp9454
sS'somberte'
p9455
(F0.0
F1.0
tp9456
sS'kloot'
p9457
(F0.0
F0.75
tp9458
sS'voldoening'
p9459
(F0.5
F0.0
tp9460
sS'buitenissig'
p9461
(F0.0
F1.0
tp9462
sS'volharden'
p9463
(F0.25
F0.0
tp9464
sS'irrationeel'
p9465
(F0.0
F0.75
tp9466
sS'besmetten'
p9467
(F0.0
F0.5
tp9468
sS'feestnummer'
p9469
(F0.25
F0.0
tp9470
sS'hinder'
p9471
(F0.0
F0.75
tp9472
sS'kwibus'
p9473
(F0.0
F0.5
tp9474
sS'heelmeester'
p9475
(F0.5
F0.25
tp9476
sS'inhoud'
p9477
(F0.25
F0.0
tp9478
sS'geluidloos'
p9479
(F0.5
F0.0
tp9480
sS'doodsbang'
p9481
(F0.0
F1.0
tp9482
sS'supprimeren'
p9483
(F0.0
F0.25
tp9484
sS'genegenheid'
p9485
(F1.0
F0.0
tp9486
sS'vrouwenhandel'
p9487
(F0.0
F0.5
tp9488
sS'doodgemakkelijk'
p9489
(F0.5
F0.25
tp9490
sS'negeren'
p9491
(F0.0
F0.75
tp9492
sS'moorddadig'
p9493
(F0.0
F1.0
tp9494
sS'beweren'
p9495
(F0.0
F0.25
tp9496
sS'snappen'
p9497
(F0.25
F0.0
tp9498
sS'draaien'
p9499
(F0.0
F0.25
tp9500
sS'druilerig'
p9501
(F0.0
F1.0
tp9502
sS'opnemen'
p9503
(F0.25
F0.0
tp9504
sS'paardelul'
p9505
(F0.0
F1.0
tp9506
sS'opwinden'
p9507
(F0.0
F0.5
tp9508
sS'pietepeuteraar'
p9509
(F0.0
F1.0
tp9510
sS'verbroedering'
p9511
(F0.5
F0.0
tp9512
sS'moeilijk'
p9513
(F0.0
F0.5
tp9514
sS'samenwerken'
p9515
(F0.25
F0.0
tp9516
sS'democratisch'
p9517
(F0.25
F0.0
tp9518
sS'volbrengen'
p9519
(F0.25
F0.0
tp9520
sS'verheffend'
p9521
(F1.0
F0.0
tp9522
sS'schooier'
p9523
(F0.0
F1.0
tp9524
sS'prachtig'
p9525
(F1.0
F0.0
tp9526
sS'onbezwaard'
p9527
(F0.5
F0.0
tp9528
sS'schateren'
p9529
(F0.75
F0.0
tp9530
sS'sjofelaar'
p9531
(F0.0
F0.75
tp9532
sS'zanikpot'
p9533
(F0.0
F1.0
tp9534
sS'geneesheer'
p9535
(F0.75
F0.0
tp9536
sS'aanspraak'
p9537
(F0.25
F0.0
tp9538
sS'nutteloos'
p9539
(F0.0
F1.0
tp9540
sS'vergunnen'
p9541
(F0.5
F0.0
tp9542
sS'kleinzielig'
p9543
(F0.0
F1.0
tp9544
sS'chloorzuur'
p9545
(F0.0
F0.25
tp9546
sS'beledigen'
p9547
(F0.0
F0.75
tp9548
sS'verbieden'
p9549
(F0.0
F0.25
tp9550
sS'stakingbreker'
p9551
(F0.0
F0.25
tp9552
sS'poeha'
p9553
(F0.0
F1.0
tp9554
sS'rampzalig'
p9555
(F0.0
F1.0
tp9556
sS'kreng'
p9557
(F0.0
F1.0
tp9558
sS'verwensing'
p9559
(F0.0
F0.75
tp9560
sS'vermaardheid'
p9561
(F0.25
F0.0
tp9562
sS'zwavelzuur'
p9563
(F0.0
F0.25
tp9564
sS'vertraging'
p9565
(F0.0
F0.5
tp9566
sS'kloris'
p9567
(F0.0
F0.5
tp9568
sS'kalmeren'
p9569
(F0.0
F0.25
tp9570
sS'eind'
p9571
(F0.0
F0.25
tp9572
sS'duf'
p9573
(F0.0
F0.75
tp9574
sS'afkerig'
p9575
(F0.0
F0.75
tp9576
sS'drein'
p9577
(F0.0
F0.25
tp9578
sS'vaarwel'
p9579
(F0.0
F0.25
tp9580
sS'kinkhoest'
p9581
(F0.0
F0.25
tp9582
sS'kleurloos'
p9583
(F0.0
F0.75
tp9584
sS'stoottroepen'
p9585
(F0.0
F0.25
tp9586
sS'angstvallig'
p9587
(F0.0
F0.75
tp9588
sS'wakker'
p9589
(F0.5
F0.0
tp9590
sS'zoonlief'
p9591
(F0.75
F0.0
tp9592
sS'val'
p9593
(F0.0
F0.5
tp9594
sS'veracht'
p9595
(F0.0
F1.0
tp9596
sS'afkeuring'
p9597
(F0.0
F0.5
tp9598
sS'overwicht'
p9599
(F0.25
F0.25
tp9600
sS'doorzettingsvermogen'
p9601
(F1.0
F0.0
tp9602
sS'neervellen'
p9603
(F0.0
F0.25
tp9604
sS'bekoren'
p9605
(F0.25
F0.0
tp9606
sS'glimmer'
p9607
(F0.25
F0.0
tp9608
sS'verheerlijken'
p9609
(F0.0
F0.25
tp9610
sS'hotemetoot'
p9611
(F0.0
F0.5
tp9612
sS'oorlog'
p9613
(F0.0
F0.75
tp9614
sS'vooruitzicht'
p9615
(F0.25
F0.0
tp9616
sS'ellende'
p9617
(F0.0
F1.0
tp9618
sS'zielenpiet'
p9619
(F0.0
F0.75
tp9620
sS'degelijk'
p9621
(F1.0
F0.0
tp9622
sS'kompaan'
p9623
(F0.25
F0.0
tp9624
sS'schaduw'
p9625
(F0.0
F0.25
tp9626
sS'kromliggen'
p9627
(F0.0
F0.25
tp9628
sS'wenselijk'
p9629
(F0.5
F0.0
tp9630
sS'sterfgeval'
p9631
(F0.0
F0.75
tp9632
sS'zeur'
p9633
(F0.0
F1.0
tp9634
sS'billijken'
p9635
(F0.25
F0.0
tp9636
sS'prestige'
p9637
(F0.25
F0.0
tp9638
sS'ongelofelijk'
p9639
(F0.0
F0.25
tp9640
sS'oorlogsjaar'
p9641
(F0.0
F0.25
tp9642
sS'onrechtmatigheid'
p9643
(F0.0
F1.0
tp9644
sS'protectionist'
p9645
(F0.0
F0.25
tp9646
sS'mystificatie'
p9647
(F0.0
F0.25
tp9648
sS'verwarren'
p9649
(F0.0
F0.25
tp9650
sS'overhandigen'
p9651
(F0.25
F0.0
tp9652
sS'drogbeeld'
p9653
(F0.0
F0.25
tp9654
sS'gewetenloos'
p9655
(F0.0
F1.0
tp9656
sS'schuchter'
p9657
(F0.0
F0.5
tp9658
sS'uitzetting'
p9659
(F0.0
F0.25
tp9660
sS'troetelkind'
p9661
(F1.0
F0.0
tp9662
sS'vriendelijk'
p9663
(F1.0
F0.0
tp9664
sS'patser'
p9665
(F0.0
F1.0
tp9666
sS'modereren'
p9667
(F0.0
F0.25
tp9668
sS'toebedelen'
p9669
(F0.25
F0.0
tp9670
sS'inconsequent'
p9671
(F0.0
F1.0
tp9672
sS'wrok'
p9673
(F0.0
F0.5
tp9674
sS'fascisme'
p9675
(F0.0
F0.5
tp9676
sS'zwartgalligheid'
p9677
(F0.0
F0.25
tp9678
sS'binnenloodsen'
p9679
(F0.25
F0.0
tp9680
sS'frictie'
p9681
(F0.0
F0.25
tp9682
sS'ongehoorzaam'
p9683
(F0.0
F0.75
tp9684
sS'jaloers'
p9685
(F0.0
F1.0
tp9686
sS'verzet'
p9687
(F0.0
F0.25
tp9688
sS'verdacht'
p9689
(F0.0
F0.75
tp9690
sS'huwelijkssluiting'
p9691
(F0.25
F0.0
tp9692
sS'krent'
p9693
(F0.0
F0.75
tp9694
sS'opschudding'
p9695
(F0.0
F0.5
tp9696
sS'abdiceren'
p9697
(F0.0
F0.25
tp9698
sS'bloedbad'
p9699
(F0.0
F1.0
tp9700
sS'confuus'
p9701
(F0.0
F0.5
tp9702
sS'gearresteerde'
p9703
(F0.0
F0.25
tp9704
sS'geilpompen'
p9705
(F0.0
F0.5
tp9706
sS'kloven'
p9707
(F0.0
F0.5
tp9708
sS'kwaadaardigheid'
p9709
(F0.0
F1.0
tp9710
sS'durf'
p9711
(F0.25
F0.0
tp9712
sS'halfgaar'
p9713
(F0.0
F0.75
tp9714
sS'tuchtcommissie'
p9715
(F0.0
F0.25
tp9716
sS'zeikstraal'
p9717
(F0.0
F1.0
tp9718
sS'hersenkronkel'
p9719
(F0.0
F0.25
tp9720
sS'gemoedsrust'
p9721
(F0.25
F0.0
tp9722
sS'afprijzen'
p9723
(F0.0
F0.5
tp9724
sS'plunderen'
p9725
(F0.0
F0.75
tp9726
sS'schijtlaars'
p9727
(F0.0
F1.0
tp9728
sS'gedogen'
p9729
(F0.0
F0.25
tp9730
sS'pis'
p9731
(F0.0
F0.25
tp9732
sS'pit'
p9733
(F0.25
F0.0
tp9734
sS'hinderen'
p9735
(F0.0
F0.75
tp9736
sS'genoeglijkheid'
p9737
(F0.25
F0.0
tp9738
sS'kledderig'
p9739
(F0.0
F0.5
tp9740
sS'rectificeren'
p9741
(F0.0
F0.25
tp9742
sS'onverbiddelijk'
p9743
(F0.0
F0.75
tp9744
sS'boos'
p9745
(F0.0
F1.0
tp9746
sS'radicaal'
p9747
(F0.0
F0.75
tp9748
sS'hobbezak'
p9749
(F0.0
F1.0
tp9750
sS'opgejaagd'
p9751
(F0.0
F0.75
tp9752
sS'verwerkelijken'
p9753
(F0.75
F0.0
tp9754
sS'vuurzee'
p9755
(F0.0
F0.5
tp9756
sS'ge\xc3\xafsoleerd'
p9757
(F0.0
F0.25
tp9758
sS'waanzinnig'
p9759
(F0.5
F0.25
tp9760
sS'beweging'
p9761
(F0.25
F0.0
tp9762
sS'propri\xc3\xabteit'
p9763
(F0.25
F0.0
tp9764
sS'stimulans'
p9765
(F0.5
F0.0
tp9766
sS'grotesk'
p9767
(F0.5
F0.5
tp9768
sS'ongeldig'
p9769
(F0.0
F0.5
tp9770
sS'gezwets'
p9771
(F0.0
F1.0
tp9772
sS'overgaan'
p9773
(F0.5
F0.0
tp9774
sS'katalysator'
p9775
(F0.25
F0.0
tp9776
sS'blindelings'
p9777
(F0.25
F0.25
tp9778
sS'star'
p9779
(F0.0
F0.75
tp9780
sS'slaaplucht'
p9781
(F0.0
F0.5
tp9782
sS'judassen'
p9783
(F0.0
F0.5
tp9784
sS'zelfingenomen'
p9785
(F0.0
F1.0
tp9786
sS'deugdelijk'
p9787
(F1.0
F0.0
tp9788
sS'beschaamd'
p9789
(F0.0
F1.0
tp9790
sS'hatelijk'
p9791
(F0.0
F1.0
tp9792
sS'weldadig'
p9793
(F0.5
F0.5
tp9794
sS'zielerust'
p9795
(F0.5
F0.0
tp9796
sS'ophef'
p9797
(F0.0
F0.5
tp9798
sS'droefgeestigheid'
p9799
(F0.0
F1.0
tp9800
sS'treurig'
p9801
(F0.0
F1.0
tp9802
sS'vruchteloos'
p9803
(F0.0
F1.0
tp9804
sS'kanon'
p9805
(F0.25
F0.0
tp9806
sS'intiem'
p9807
(F0.5
F0.0
tp9808
sS'slaan'
p9809
(F0.0
F0.25
tp9810
sS'verzwaren'
p9811
(F0.0
F0.75
tp9812
sS'bedrevenheid'
p9813
(F1.0
F0.0
tp9814
sS'bevreesd'
p9815
(F0.0
F0.75
tp9816
sS'kwiek'
p9817
(F1.0
F0.0
tp9818
sS'allerminst'
p9819
(F0.0
F0.25
tp9820
sS'liefste'
p9821
(F1.0
F0.0
tp9822
sS'retraite'
p9823
(F0.25
F0.0
tp9824
sS'vorderen'
p9825
(F0.0
F0.25
tp9826
sS'opdonderen'
p9827
(F0.0
F1.0
tp9828
sS'schuldenlast'
p9829
(F0.0
F0.5
tp9830
sS'overvloed'
p9831
(F0.5
F0.0
tp9832
sS'jammerlijk'
p9833
(F0.0
F0.75
tp9834
sS'euforisch'
p9835
(F1.0
F0.0
tp9836
sS'veilig'
p9837
(F1.0
F0.0
tp9838
sS'besmet'
p9839
(F0.0
F0.5
tp9840
sS'passiviteit'
p9841
(F0.0
F0.5
tp9842
sS'identiek'
p9843
(F0.25
F0.0
tp9844
sS'filmster'
p9845
(F0.5
F0.0
tp9846
sS'grandrix'
p9847
(F0.5
F0.0
tp9848
s.